(dp0
S'METTS MARK'
p1
(dp2
S'to_messages'
p3
I807
sS'percent_salary'
p4
F0.34448926237513267
sS'deferral_payments'
p5
I0
sS'percent_restricted_stock'
p6
F1.0
sS'expenses'
p7
I94299
sS'percent_expenses'
p8
F0.08880825219174121
sS'poi'
p9
I00
sS'percent_long_term_incentive'
p10
F0.0
sS'deferred_income'
p11
I0
sS'email_address'
p12
S'mark.metts@enron.com'
p13
sS'long_term_incentive'
p14
I0
sS'restricted_stock_deferred'
p15
I0
sS'percent_bonus'
p16
F0.5650638004119315
sS'shared_receipt_with_poi'
p17
I702
sS'loan_advances'
p18
I0
sS'from_messages'
p19
I29
sS'other'
p20
I1740
sS'percent_loan_advances'
p21
F0.0
sS'director_fees'
p22
I0
sS'bonus'
p23
I600000
sS'total_stock_value'
p24
I585062
sS'from_poi_to_this_person'
p25
I38
sS'percent_exercised_stock_options'
p26
F0.0
sS'percent_deferred_income'
p27
F0.0
sS'from_this_person_to_poi'
p28
I1
sS'percent_deferral_payments'
p29
F0.0
sS'restricted_stock'
p30
I585062
sS'salary'
p31
I365788
sS'percent_other'
p32
F0.0016386850211946014
sS'total_payments'
p33
I1061827
sS'percent_restricted_stock_deferred'
p34
F0.0
sS'exercised_stock_options'
p35
I0
sS'percent_director_fees'
p36
F0.0
ssS'BAXTER JOHN C'
p37
(dp38
g3
I0
sg4
F0.047406059588491506
sg5
I1295738
sg6
F0.3711398141700032
sg7
I11200
sg8
F0.001987809403864834
sg9
I00
sg10
F0.2814977717898964
sg11
I-1386055
sg12
I0
sg14
I1586055
sg15
I0
sg16
F0.21297957898551792
sg17
I0
sg18
I0
sg19
I0
sg20
I2660303
sg21
F0.0
sg22
I0
sg23
I1200000
sg24
I10623258
sg25
I0
sg26
F0.6288601858299968
sg27
F-0.24600117529231003
sg28
I0
sg29
F0.2299714447629475
sg30
I3942714
sg31
I267102
sg32
F0.4721585107615919
sg33
I5634343
sg34
F0.0
sg35
I6680544
sg36
F0.0
ssS'ELLIOTT STEVEN'
p39
(dp40
g3
I0
sg4
F0.8073727712835046
sg5
I0
sg6
F0.2677739122753036
sg7
I78552
sg8
F0.371009564293305
sg9
I00
sg10
F0.0
sg11
I-400729
sg12
S'steven.elliott@enron.com'
p41
sg14
I0
sg15
I0
sg16
F1.6530877317274766
sg17
I0
sg18
I0
sg19
I0
sg20
I12961
sg21
F0.0
sg22
I0
sg23
I350000
sg24
I6678735
sg25
I0
sg26
F0.7322260877246963
sg27
F-1.8926862675640572
sg28
I0
sg29
F0.0
sg30
I1788391
sg31
I170941
sg32
F0.06121620025977093
sg33
I211725
sg34
F0.0
sg35
I4890344
sg36
F0.0
ssS'CORDES WILLIAM R'
p42
(dp43
g3
I764
sg4
I0
sg5
I0
sg6
F0.3721253919099197
sg7
I0
sg8
I0
sg9
I00
sg10
I0
sg11
I0
sg12
S'bill.cordes@enron.com'
p44
sg14
I0
sg15
I0
sg16
I0
sg17
I58
sg18
I0
sg19
I12
sg20
I0
sg21
I0
sg22
I0
sg23
I0
sg24
I1038185
sg25
I10
sg26
F0.6278746080900803
sg27
I0
sg28
I0
sg29
I0
sg30
I386335
sg31
I0
sg32
I0
sg33
I0
sg34
F0.0
sg35
I651850
sg36
I0
ssS'HANNON KEVIN P'
p45
(dp46
g3
I1045
sg4
F0.8427716310680957
sg5
I0
sg6
F0.13347759723927077
sg7
I34039
sg8
F0.11791175064603959
sg9
I01
sg10
F5.60135720273519
sg11
I-3117011
sg12
S'kevin.hannon@enron.com'
p47
sg14
I1617011
sg15
I0
sg16
F5.196028848352166
sg17
I1035
sg18
I0
sg19
I32
sg20
I11350
sg21
F0.0
sg22
I0
sg23
I1500000
sg24
I6391065
sg25
I32
sg26
F0.8665224027607292
sg27
F-10.797386051087356
sg28
I21
sg29
F0.0
sg30
I853064
sg31
I243293
sg32
F0.039316618285864725
sg33
I288682
sg34
F0.0
sg35
I5538001
sg36
F0.0
ssS'MORDAUNT KRISTINA M'
p48
(dp49
g3
I0
sg4
F0.42495409866321304
sg5
I0
sg6
F1.0
sg7
I35018
sg8
F0.05571483575753912
sg9
I00
sg10
F0.0
sg11
I0
sg12
S'kristina.mordaunt@enron.com'
p50
sg14
I0
sg15
I0
sg16
F0.5170861163173286
sg17
I0
sg18
I0
sg19
I0
sg20
I1411
sg21
F0.0
sg22
I0
sg23
I325000
sg24
I208510
sg25
I0
sg26
F0.0
sg27
F0.0
sg28
I0
sg29
F0.0
sg30
I208510
sg31
I267093
sg32
F0.002244949261919233
sg33
I628522
sg34
F0.0
sg35
I0
sg36
F0.0
ssS'MEYER ROCKFORD G'
p51
(dp52
g3
I232
sg4
F0.0
sg5
I1848227
sg6
F0.4837295331074316
sg7
I0
sg8
F0.0
sg9
I00
sg10
F0.0
sg11
I0
sg12
S'rockford.meyer@enron.com'
p53
sg14
I0
sg15
I0
sg16
F0.0
sg17
I22
sg18
I0
sg19
I28
sg20
I0
sg21
F0.0
sg22
I0
sg23
I0
sg24
I955873
sg25
I0
sg26
F0.5162704668925684
sg27
F0.0
sg28
I0
sg29
F1.0
sg30
I462384
sg31
I0
sg32
F0.0
sg33
I1848227
sg34
F0.0
sg35
I493489
sg36
F0.0
ssS'MCMAHON JEFFREY'
p54
(dp55
g3
I2355
sg4
F0.09035821756873738
sg5
I0
sg6
F0.3360491443932273
sg7
I137108
sg8
F0.033442843514918275
sg9
I00
sg10
F0.16948800311041762
sg11
I0
sg12
S'jeffrey.mcmahon@enron.com'
p56
sg14
I694862
sg15
I0
sg16
F0.6341817628350461
sg17
I2228
sg18
I0
sg19
I48
sg20
I297353
sg21
F0.0
sg22
I0
sg23
I2600000
sg24
I1662855
sg25
I58
sg26
F0.6639508556067727
sg27
F0.0
sg28
I26
sg29
F0.0
sg30
I558801
sg31
I370448
sg32
F0.07252917297088057
sg33
I4099771
sg34
F0.0
sg35
I1104054
sg36
F0.0
ssS'HORTON STANLEY C'
p57
(dp58
g3
I2350
sg4
F0.0
sg5
I3131860
sg6
F0.28195924619741786
sg7
I0
sg8
F0.0
sg9
I00
sg10
F0.0
sg11
I0
sg12
S'stanley.horton@enron.com'
p59
sg14
I0
sg15
I0
sg16
F0.0
sg17
I1074
sg18
I0
sg19
I1073
sg20
I0
sg21
F0.0
sg22
I0
sg23
I0
sg24
I7256648
sg25
I44
sg26
F0.7180407538025821
sg27
F0.0
sg28
I15
sg29
F1.0
sg30
I2046079
sg31
I0
sg32
F0.0
sg33
I3131860
sg34
F0.0
sg35
I5210569
sg36
F0.0
ssS'PIPER GREGORY F'
p60
(dp61
g3
I1238
sg4
F0.11342524785210191
sg5
I1130036
sg6
F0.46524895204989264
sg7
I43057
sg8
F0.024779167474760146
sg9
I00
sg10
F0.0
sg11
I-33333
sg12
S'greg.piper@enron.com'
p62
sg14
I0
sg15
I-409554
sg16
F0.23019873632403695
sg17
I742
sg18
I0
sg19
I222
sg20
I778
sg21
F0.0
sg22
I0
sg23
I400000
sg24
I880290
sg25
I61
sg26
F1.0
sg27
F-0.019183036194722808
sg28
I48
sg29
F0.6503321480016735
sg30
I409554
sg31
I197091
sg32
F0.00044773654215025184
sg33
I1737629
sg34
F-0.46524895204989264
sg35
I880290
sg36
F0.0
ssS'HUMPHREY GENE E'
p63
(dp64
g3
I128
sg4
F0.04216598542556925
sg5
I2964506
sg6
F0.0
sg7
I4994
sg8
F0.0016108513449350757
sg9
I00
sg10
F0.0
sg11
I0
sg12
S'gene.humphrey@enron.com'
p65
sg14
I0
sg15
I0
sg16
F0.0
sg17
I119
sg18
I0
sg19
I17
sg20
I0
sg21
F0.0
sg22
I0
sg23
I0
sg24
I2282768
sg25
I10
sg26
F1.0
sg27
F0.0
sg28
I17
sg29
F0.9562231632294956
sg30
I0
sg31
I130724
sg32
F0.0
sg33
I3100224
sg34
F0.0
sg35
I2282768
sg36
F0.0
ssS'UMANOFF ADAM S'
p66
(dp67
g3
I111
sg4
F0.2552843485976075
sg5
I0
sg6
I0
sg7
I53122
sg8
F0.04699144862140313
sg9
I00
sg10
F0.0
sg11
I0
sg12
S'adam.umanoff@enron.com'
p68
sg14
I0
sg15
I0
sg16
F0.6977242027809893
sg17
I41
sg18
I0
sg19
I18
sg20
I0
sg21
F0.0
sg22
I0
sg23
I788750
sg24
I0
sg25
I12
sg26
I0
sg27
F0.0
sg28
I0
sg29
F0.0
sg30
I0
sg31
I288589
sg32
F0.0
sg33
I1130461
sg34
I0
sg35
I0
sg36
F0.0
ssS'BLACHMAN JEREMY M'
p69
(dp70
g3
I2475
sg4
F0.12335799209364538
sg5
I0
sg6
F0.19808268210747793
sg7
I84208
sg8
F0.04179399305650339
sg9
I00
sg10
F0.4128422426650321
sg11
I0
sg12
S'jeremy.blachman@enron.com'
p71
sg14
I831809
sg15
I0
sg16
F0.4218707735372872
sg17
I2326
sg18
I0
sg19
I14
sg20
I272
sg21
F0.0
sg22
I0
sg23
I850000
sg24
I954354
sg25
I25
sg26
F0.8019173178925221
sg27
F0.0
sg28
I2
sg29
F0.0
sg30
I189041
sg31
I248546
sg32
F0.0001349986475319319
sg33
I2014835
sg34
F0.0
sg35
I765313
sg36
F0.0
ssS'SUNDE MARTIN'
p72
(dp73
g3
I2647
sg4
F0.16665124115001434
sg5
I0
sg6
F1.0
sg7
I0
sg8
F0.0
sg9
I00
sg10
F0.30837074830152117
sg11
I0
sg12
S'marty.sunde@enron.com'
p74
sg14
I476451
sg15
I0
sg16
F0.4530571324460749
sg17
I2565
sg18
I0
sg19
I38
sg20
I111122
sg21
F0.0
sg22
I0
sg23
I700000
sg24
I698920
sg25
I37
sg26
F0.0
sg27
F0.0
sg28
I13
sg29
F0.0
sg30
I698920
sg31
I257486
sg32
F0.07192087810238962
sg33
I1545059
sg34
F0.0
sg35
I0
sg36
F0.0
ssS'GIBBS DANA R'
p75
(dp76
g3
I169
sg4
F0.0
sg5
I504610
sg6
F0.0
sg7
I0
sg8
F0.0
sg9
I00
sg10
F0.47791152193121317
sg11
I0
sg12
S'dana.gibbs@enron.com'
p77
sg14
I461912
sg15
I0
sg16
F0.0
sg17
I23
sg18
I0
sg19
I12
sg20
I0
sg21
F0.0
sg22
I0
sg23
I0
sg24
I2218275
sg25
I0
sg26
F1.0
sg27
F0.0
sg28
I0
sg29
F0.5220884780687869
sg30
I0
sg31
I0
sg32
F0.0
sg33
I966522
sg34
F0.0
sg35
I2218275
sg36
F0.0
ssS'LOWRY CHARLES P'
p78
(dp79
g3
I0
sg4
I0
sg5
I0
sg6
F0.41290686584006125
sg7
I0
sg8
I0
sg9
I00
sg10
I0
sg11
I0
sg12
I0
sg14
I0
sg15
I-153686
sg16
I0
sg17
I0
sg18
I0
sg19
I0
sg20
I0
sg21
I0
sg22
I0
sg23
I0
sg24
I372205
sg25
I0
sg26
F1.0
sg27
I0
sg28
I0
sg29
I0
sg30
I153686
sg31
I0
sg32
I0
sg33
I0
sg34
F-0.41290686584006125
sg35
I372205
sg36
I0
ssS'COLWELL WESLEY'
p80
(dp81
g3
I1758
sg4
F0.19360765031428986
sg5
I27610
sg6
F1.0
sg7
I16514
sg8
F0.011080663256268351
sg9
I01
sg10
F0.0
sg11
I-144062
sg12
S'wes.colwell@enron.com'
p82
sg14
I0
sg15
I0
sg16
F0.8051832328643588
sg17
I1132
sg18
I0
sg19
I40
sg20
I101740
sg21
F0.0
sg22
I0
sg23
I1200000
sg24
I698242
sg25
I240
sg26
F0.0
sg27
F-0.09666358907742105
sg28
I11
sg29
F0.01852592421615412
sg30
I698242
sg31
I288542
sg32
F0.06826611842634989
sg33
I1490344
sg34
F0.0
sg35
I0
sg36
F0.0
ssS'MULLER MARK S'
p83
(dp84
g3
I136
sg4
F0.07859103642331366
sg5
I842924
sg6
F0.2544577823450363
sg7
I0
sg8
F0.0
sg9
I00
sg10
F0.5388842217690432
sg11
I-719000
sg12
S's..muller@enron.com'
p85
sg14
I1725545
sg15
I0
sg16
F0.3435277804670104
sg17
I114
sg18
I0
sg19
I16
sg20
I947
sg21
F0.0
sg22
I0
sg23
I1100000
sg24
I1416848
sg25
I12
sg26
F0.7455422176549636
sg27
F-0.22454224923252772
sg28
I0
sg29
F0.2632434643839766
sg30
I360528
sg31
I251654
sg32
F0.0002957461891838717
sg33
I3202070
sg34
F0.0
sg35
I1056320
sg36
F0.0
ssS'JACKSON CHARLENE R'
p86
(dp87
g3
I258
sg4
F0.5235334032447104
sg5
I0
sg6
F0.7449992076997802
sg7
I10181
sg8
F0.01847148087536785
sg9
I00
sg10
F0.0
sg11
I0
sg12
S'charlene.jackson@enron.com'
p88
sg14
I0
sg15
I0
sg16
F0.453577273238578
sg17
I117
sg18
I0
sg19
I56
sg20
I2435
sg21
F0.0
sg22
I0
sg23
I250000
sg24
I725735
sg25
I25
sg26
F0.25500079230021977
sg27
F0.0
sg28
I19
sg29
F0.0
sg30
I540672
sg31
I288558
sg32
F0.00441784264134375
sg33
I551174
sg34
F0.0
sg35
I185063
sg36
F0.0
ssS'WESTFAHL RICHARD K'
p89
(dp90
g3
I0
sg4
F0.08363872542266133
sg5
I0
sg6
F1.0
sg7
I51870
sg8
F0.06805880847881281
sg9
I00
sg10
F0.336149107441595
sg11
I-10800
sg12
S'dick.westfahl@enron.com'
p91
sg14
I256191
sg15
I0
sg16
F0.0
sg17
I0
sg18
I0
sg19
I0
sg20
I401130
sg21
F0.0
sg22
I0
sg23
I0
sg24
I384930
sg25
I0
sg26
F0.0
sg27
F-0.014170717786218976
sg28
I0
sg29
F0.0
sg30
I384930
sg31
I63744
sg32
F0.5263240764431498
sg33
I762135
sg34
F0.0
sg35
I0
sg36
F0.0
ssS'WALTERS GARETH W'
p92
(dp93
g3
I0
sg4
F0.0
sg5
I53625
sg6
F0.0
sg7
I33785
sg8
F0.3865118407504862
sg9
I00
sg10
F0.0
sg11
I0
sg12
I0
sg14
I0
sg15
I0
sg16
F0.0
sg17
I0
sg18
I0
sg19
I0
sg20
I0
sg21
F0.0
sg22
I0
sg23
I0
sg24
I1030329
sg25
I0
sg26
F1.0
sg27
F0.0
sg28
I0
sg29
F0.6134881592495138
sg30
I0
sg31
I0
sg32
F0.0
sg33
I87410
sg34
F0.0
sg35
I1030329
sg36
F0.0
ssS'WALLS JR ROBERT H'
p94
(dp95
g3
I671
sg4
F0.1985184402761872
sg5
I0
sg6
F0.2631723664209356
sg7
I50936
sg8
F0.028316970391042817
sg9
I00
sg10
F0.30062097643958685
sg11
I0
sg12
S'rob.walls@enron.com'
p96
sg14
I540751
sg15
I0
sg16
F0.47254250102847484
sg17
I215
sg18
I0
sg19
I146
sg20
I2
sg21
F0.0
sg22
I0
sg23
I850000
sg24
I5898997
sg25
I17
sg26
F0.7368276335790643
sg27
F0.0
sg28
I0
sg29
F0.0
sg30
I1552453
sg31
I357091
sg32
F1.1118647083022938e-06
sg33
I1798780
sg34
F0.0
sg35
I4346544
sg36
F0.0
ssS'KITCHEN LOUISE'
p97
(dp98
g3
I8305
sg4
F0.07819964674439903
sg5
I0
sg6
F0.8518815008142295
sg7
I5774
sg8
F0.0016634299787879547
sg9
I00
sg10
F0.0
sg11
I0
sg12
S'louise.kitchen@enron.com'
p99
sg14
I0
sg15
I0
sg16
F0.8930780973748977
sg17
I3669
sg18
I0
sg19
I1728
sg20
I93925
sg21
F0.0
sg22
I0
sg23
I3100000
sg24
I547143
sg25
I251
sg26
F0.14811849918577044
sg27
F0.0
sg28
I194
sg29
F0.0
sg30
I466101
sg31
I271442
sg32
F0.02705882590191525
sg33
I3471141
sg34
F0.0
sg35
I81042
sg36
F0.0
ssS'CHAN RONNIE'
p100
(dp101
g3
I0
sg4
I0
sg5
I0
sg6
I0
sg7
I0
sg8
I0
sg9
I00
sg10
I0
sg11
I-98784
sg12
I0
sg14
I0
sg15
I-32460
sg16
I0
sg17
I0
sg18
I0
sg19
I0
sg20
I0
sg21
I0
sg22
I98784
sg23
I0
sg24
I0
sg25
I0
sg26
I0
sg27
I0
sg28
I0
sg29
I0
sg30
I32460
sg31
I0
sg32
I0
sg33
I0
sg34
I0
sg35
I0
sg36
I0
ssS'SHANKMAN JEFFREY A'
p102
(dp103
g3
I3221
sg4
F0.10007891527369252
sg5
I0
sg6
F0.3041150366668517
sg7
I178979
sg8
F0.05889981972565918
sg9
I00
sg10
F0.18245356076377348
sg11
I0
sg12
S'jeffrey.shankman@enron.com'
p104
sg14
I554422
sg15
I0
sg16
F0.6581757605714545
sg17
I1730
sg18
I0
sg19
I2681
sg20
I1191
sg21
F0.0
sg22
I0
sg23
I2000000
sg24
I2072035
sg25
I94
sg26
F0.6958849633331483
sg27
F0.0
sg28
I83
sg29
F0.0
sg30
I630137
sg31
I304110
sg32
F0.0003919436654203012
sg33
I3038702
sg34
F0.0
sg35
I1441898
sg36
F0.0
ssS'WODRASKA JOHN'
p105
(dp106
g3
I0
sg4
F0.0
sg5
I0
sg6
I0
sg7
I0
sg8
F0.0
sg9
I00
sg10
F0.0
sg11
I0
sg12
S'john.wodraska@enron.com'
p107
sg14
I0
sg15
I0
sg16
F0.0
sg17
I0
sg18
I0
sg19
I0
sg20
I189583
sg21
F0.0
sg22
I0
sg23
I0
sg24
I0
sg25
I0
sg26
I0
sg27
F0.0
sg28
I0
sg29
F0.0
sg30
I0
sg31
I0
sg32
F1.0
sg33
I189583
sg34
I0
sg35
I0
sg36
F0.0
ssS'BERGSIEKER RICHARD P'
p108
(dp109
g3
I383
sg4
F0.3036632463440252
sg5
I0
sg6
F1.0
sg7
I59175
sg8
F0.09562090975195928
sg9
I00
sg10
F0.29126605801082656
sg11
I-485813
sg12
S'rick.bergsieker@enron.com'
p110
sg14
I180250
sg15
I0
sg16
F0.4039751151329078
sg17
I233
sg18
I0
sg19
I59
sg20
I427316
sg21
F0.0
sg22
I0
sg23
I250000
sg24
I659249
sg25
I4
sg26
F0.0
sg27
F-0.7850254504322534
sg28
I0
sg29
F0.0
sg30
I659249
sg31
I187922
sg32
F0.6905001211925346
sg33
I618850
sg34
F0.0
sg35
I0
sg36
F0.0
ssS'URQUHART JOHN A'
p111
(dp112
g3
I0
sg4
F0.0
sg5
I0
sg6
I0
sg7
I228656
sg8
F1.0
sg9
I00
sg10
F0.0
sg11
I-36666
sg12
I0
sg14
I0
sg15
I0
sg16
F0.0
sg17
I0
sg18
I0
sg19
I0
sg20
I0
sg21
F0.0
sg22
I36666
sg23
I0
sg24
I0
sg25
I0
sg26
I0
sg27
F-0.16035441886501994
sg28
I0
sg29
F0.0
sg30
I0
sg31
I0
sg32
F0.0
sg33
I228656
sg34
I0
sg35
I0
sg36
F0.16035441886501994
ssS'BIBI PHILIPPE A'
p113
(dp114
g3
I1607
sg4
F0.10432981554439774
sg5
I0
sg6
F0.20505408348772328
sg7
I38559
sg8
F0.018831379087543277
sg9
I00
sg10
F0.18056371554307912
sg11
I0
sg12
S'philippe.bibi@enron.com'
p115
sg14
I369721
sg15
I0
sg16
F0.4883783056496091
sg17
I1336
sg18
I0
sg19
I40
sg20
I425688
sg21
F0.0
sg22
I0
sg23
I1000000
sg24
I1843816
sg25
I23
sg26
F0.7949459165122768
sg27
F0.0
sg28
I8
sg29
F0.0
sg30
I378082
sg31
I213625
sg32
F0.2078967841753708
sg33
I2047593
sg34
F0.0
sg35
I1465734
sg36
F0.0
ssS'RIEKER PAULA H'
p116
(dp117
g3
I1328
sg4
F0.22673187153125285
sg5
I214678
sg6
F0.14781954330817812
sg7
I33271
sg8
F0.03027113092530252
sg9
I01
sg10
F0.0
sg11
I-100000
sg12
S'paula.rieker@enron.com'
p118
sg14
I0
sg15
I0
sg16
F0.6368847238649804
sg17
I1258
sg18
I0
sg19
I82
sg20
I1950
sg21
F0.0
sg22
I0
sg23
I700000
sg24
I1918887
sg25
I35
sg26
F0.8521804566918219
sg27
F-0.09098353198071149
sg28
I48
sg29
F0.19532162678555182
sg30
I283649
sg31
I249201
sg32
F0.0017741788736238742
sg33
I1099100
sg34
F0.0
sg35
I1635238
sg36
F0.0
ssS'WHALEY DAVID A'
p119
(dp120
g3
I0
sg4
I0
sg5
I0
sg6
F0.0
sg7
I0
sg8
I0
sg9
I00
sg10
I0
sg11
I0
sg12
I0
sg14
I0
sg15
I0
sg16
I0
sg17
I0
sg18
I0
sg19
I0
sg20
I0
sg21
I0
sg22
I0
sg23
I0
sg24
I98718
sg25
I0
sg26
F1.0
sg27
I0
sg28
I0
sg29
I0
sg30
I0
sg31
I0
sg32
I0
sg33
I0
sg34
F0.0
sg35
I98718
sg36
I0
ssS'BECK SALLY W'
p121
(dp122
g3
I7315
sg4
F0.23871389830228631
sg5
I0
sg6
F1.0
sg7
I37172
sg8
F0.0383585052854908
sg9
I00
sg10
F0.0
sg11
I0
sg12
S'sally.beck@enron.com'
p123
sg14
I0
sg15
I0
sg16
F0.7223435300721931
sg17
I2639
sg18
I0
sg19
I4343
sg20
I566
sg21
F0.0
sg22
I0
sg23
I700000
sg24
I126027
sg25
I144
sg26
F0.0
sg27
F0.0
sg28
I386
sg29
F0.0
sg30
I126027
sg31
I231330
sg32
F0.0005840663400298018
sg33
I969068
sg34
F0.0
sg35
I0
sg36
F0.0
ssS'HAUG DAVID L'
p124
(dp125
g3
I573
sg4
F0.0
sg5
I0
sg6
F1.0
sg7
I475
sg8
F1.0
sg9
I00
sg10
F0.0
sg11
I0
sg12
S'david.haug@enron.com'
p126
sg14
I0
sg15
I0
sg16
F0.0
sg17
I471
sg18
I0
sg19
I19
sg20
I0
sg21
F0.0
sg22
I0
sg23
I0
sg24
I2217299
sg25
I4
sg26
F0.0
sg27
F0.0
sg28
I7
sg29
F0.0
sg30
I2217299
sg31
I0
sg32
F0.0
sg33
I475
sg34
F0.0
sg35
I0
sg36
F0.0
ssS'ECHOLS JOHN B'
p127
(dp128
g3
I0
sg4
F0.06769058998842635
sg5
I0
sg6
F0.40389180338592645
sg7
I21530
sg8
F0.007996808705044415
sg9
I00
sg10
F0.8300538865307444
sg11
I0
sg12
S'john.echols@enron.com'
p129
sg14
I2234774
sg15
I0
sg16
F0.07428526432925606
sg17
I0
sg18
I0
sg19
I0
sg20
I53775
sg21
F0.0
sg22
I0
sg23
I200000
sg24
I1008941
sg25
I0
sg26
F0.5961081966140735
sg27
F0.0
sg28
I0
sg29
F0.0
sg30
I407503
sg31
I182245
sg32
F0.019973450446528724
sg33
I2692324
sg34
F0.0
sg35
I601438
sg36
F0.0
ssS'MENDELSOHN JOHN'
p130
(dp131
g3
I0
sg4
F0.0
sg5
I0
sg6
I0
sg7
I148
sg8
F1.0
sg9
I00
sg10
F0.0
sg11
I-103750
sg12
I0
sg14
I0
sg15
I0
sg16
F0.0
sg17
I0
sg18
I0
sg19
I0
sg20
I0
sg21
F0.0
sg22
I103750
sg23
I0
sg24
I0
sg25
I0
sg26
I0
sg27
F-701.0135135135135
sg28
I0
sg29
F0.0
sg30
I0
sg31
I0
sg32
F0.0
sg33
I148
sg34
I0
sg35
I0
sg36
F701.0135135135135
ssS'HICKERSON GARY J'
p132
(dp133
g3
I1320
sg4
F0.10173331104488624
sg5
I0
sg6
F1.0
sg7
I98849
sg8
F0.04748255832944246
sg9
I00
sg10
F0.03325157700370257
sg11
I0
sg12
S'gary.hickerson@enron.com'
p134
sg14
I69223
sg15
I0
sg16
F0.8166025873812804
sg17
I900
sg18
I0
sg19
I27
sg20
I1936
sg21
F0.0
sg22
I0
sg23
I1700000
sg24
I441096
sg25
I40
sg26
F0.0
sg27
F0.0
sg28
I1
sg29
F0.0
sg30
I441096
sg31
I211788
sg32
F0.0009299662406883287
sg33
I2081796
sg34
F0.0
sg35
I0
sg36
F0.0
ssS'CLINE KENNETH W'
p135
(dp136
g3
I0
sg4
I0
sg5
I0
sg6
F3.4935256809379585
sg7
I0
sg8
I0
sg9
I00
sg10
I0
sg11
I0
sg12
I0
sg14
I0
sg15
I-472568
sg16
I0
sg17
I0
sg18
I0
sg19
I0
sg20
I0
sg21
I0
sg22
I0
sg23
I0
sg24
I189518
sg25
I0
sg26
F0.0
sg27
I0
sg28
I0
sg29
I0
sg30
I662086
sg31
I0
sg32
I0
sg33
I0
sg34
F-2.4935256809379585
sg35
I0
sg36
I0
ssS'LEWIS RICHARD'
p137
(dp138
g3
I952
sg4
I0
sg5
I0
sg6
F0.0
sg7
I0
sg8
I0
sg9
I00
sg10
I0
sg11
I0
sg12
S'richard.lewis@enron.com'
p139
sg14
I0
sg15
I0
sg16
I0
sg17
I739
sg18
I0
sg19
I26
sg20
I0
sg21
I0
sg22
I0
sg23
I0
sg24
I850477
sg25
I10
sg26
F1.0
sg27
I0
sg28
I0
sg29
I0
sg30
I0
sg31
I0
sg32
I0
sg33
I0
sg34
F0.0
sg35
I850477
sg36
I0
ssS'HAYES ROBERT E'
p140
(dp141
g3
I504
sg4
F0.0
sg5
I7961
sg6
F1.0
sg7
I0
sg8
F0.0
sg9
I00
sg10
F0.0
sg11
I0
sg12
S'robert.hayes@enron.com'
p142
sg14
I0
sg15
I0
sg16
F0.0
sg17
I50
sg18
I0
sg19
I12
sg20
I0
sg21
F0.0
sg22
I0
sg23
I0
sg24
I151418
sg25
I16
sg26
F0.0
sg27
F0.0
sg28
I0
sg29
F1.0
sg30
I151418
sg31
I0
sg32
F0.0
sg33
I7961
sg34
F0.0
sg35
I0
sg36
F0.0
ssS'MCCARTY DANNY J'
p143
(dp144
g3
I1433
sg4
I0
sg5
I0
sg6
F0.12459103660280052
sg7
I0
sg8
I0
sg9
I00
sg10
I0
sg11
I0
sg12
S'danny.mccarty@enron.com'
p145
sg14
I0
sg15
I0
sg16
I0
sg17
I508
sg18
I0
sg19
I215
sg20
I0
sg21
I0
sg22
I0
sg23
I0
sg24
I758931
sg25
I25
sg26
F0.8754089633971995
sg27
I0
sg28
I2
sg29
I0
sg30
I94556
sg31
I0
sg32
I0
sg33
I0
sg34
F0.0
sg35
I664375
sg36
I0
ssS'KOPPER MICHAEL J'
p146
(dp147
g3
I0
sg4
F0.08456004873686766
sg5
I0
sg6
F1.0
sg7
I118134
sg8
F0.04453497156764728
sg9
I01
sg10
F0.22719907773922457
sg11
I0
sg12
S'michael.kopper@enron.com'
p148
sg14
I602671
sg15
I0
sg16
F0.30158952760524343
sg17
I0
sg18
I0
sg19
I0
sg20
I907502
sg21
F0.0
sg22
I0
sg23
I800000
sg24
I985032
sg25
I0
sg26
F0.0
sg27
F0.0
sg28
I0
sg29
F0.0
sg30
I985032
sg31
I224305
sg32
F0.34211637435101705
sg33
I2652612
sg34
F0.0
sg35
I0
sg36
F0.0
ssS'LEFF DANIEL P'
p149
(dp150
g3
I2822
sg4
F0.10274871369867744
sg5
I0
sg6
F1.0
sg7
I0
sg8
F0.0
sg9
I00
sg10
F0.5207508516538374
sg11
I0
sg12
S'dan.leff@enron.com'
p151
sg14
I1387399
sg15
I0
sg16
F0.3753432514034084
sg17
I2672
sg18
I0
sg19
I63
sg20
I3083
sg21
F0.0
sg22
I0
sg23
I1000000
sg24
I360528
sg25
I67
sg26
F0.0
sg27
F0.0
sg28
I14
sg29
F0.0
sg30
I360528
sg31
I273746
sg32
F0.001157183244076708
sg33
I2664228
sg34
F0.0
sg35
I0
sg36
F0.0
ssS'LAVORATO JOHN J'
p152
(dp153
g3
I7259
sg4
F0.03254324841831629
sg5
I0
sg6
F0.19510758747965995
sg7
I49537
sg8
F0.004751405581388478
sg9
I00
sg10
F0.19522611163870404
sg11
I0
sg12
S'john.lavorato@enron.com'
p154
sg14
I2035380
sg15
I0
sg16
F0.767330372269371
sg17
I3962
sg18
I0
sg19
I2585
sg20
I1552
sg21
F0.0
sg22
I0
sg23
I8000000
sg24
I5167144
sg25
I528
sg26
F0.80489241252034
sg27
F0.0
sg28
I411
sg29
F0.0
sg30
I1008149
sg31
I339288
sg32
F0.00014886209222025797
sg33
I10425757
sg34
F0.0
sg35
I4158995
sg36
F0.0
ssS'BERBERIAN DAVID'
p155
(dp156
g3
I0
sg4
F0.9479503138212663
sg5
I0
sg6
F0.34857812911049657
sg7
I11892
sg8
F0.052049686178733685
sg9
I00
sg10
F0.0
sg11
I0
sg12
S'david.berberian@enron.com'
p157
sg14
I0
sg15
I0
sg16
F0.0
sg17
I0
sg18
I0
sg19
I0
sg20
I0
sg21
F0.0
sg22
I0
sg23
I0
sg24
I2493616
sg25
I0
sg26
F0.6514218708895034
sg27
F0.0
sg28
I0
sg29
F0.0
sg30
I869220
sg31
I216582
sg32
F0.0
sg33
I228474
sg34
F0.0
sg35
I1624396
sg36
F0.0
ssS'DETMERING TIMOTHY J'
p158
(dp159
g3
I0
sg4
F0.17474927007935526
sg5
I875307
sg6
F0.15536931699102258
sg7
I52255
sg8
F0.0433801572826447
sg9
I00
sg10
F0.34506298030106686
sg11
I-775241
sg12
S'timothy.detmering@enron.com'
p160
sg14
I415657
sg15
I-315068
sg16
F0.3528191913716199
sg17
I0
sg18
I0
sg19
I0
sg20
I1105
sg21
F0.0
sg22
I0
sg23
I425000
sg24
I2027865
sg25
I0
sg26
F1.0
sg27
F-0.643576241736767
sg28
I0
sg29
F0.7266473128045141
sg30
I315068
sg31
I210500
sg32
F0.0009173298975662117
sg33
I1204583
sg34
F-0.15536931699102258
sg35
I2027865
sg36
F0.0
ssS'WAKEHAM JOHN'
p161
(dp162
g3
I0
sg4
F0.0
sg5
I0
sg6
I0
sg7
I103773
sg8
F0.4870348381525407
sg9
I00
sg10
F0.0
sg11
I0
sg12
I0
sg14
I0
sg15
I0
sg16
F0.0
sg17
I0
sg18
I0
sg19
I0
sg20
I0
sg21
F0.0
sg22
I109298
sg23
I0
sg24
I0
sg25
I0
sg26
I0
sg27
F0.0
sg28
I0
sg29
F0.0
sg30
I0
sg31
I0
sg32
F0.0
sg33
I213071
sg34
I0
sg35
I0
sg36
F0.5129651618474593
ssS'POWERS WILLIAM'
p163
(dp164
g3
I653
sg4
I0
sg5
I0
sg6
I0
sg7
I0
sg8
I0
sg9
I00
sg10
I0
sg11
I-17500
sg12
S'ken.powers@enron.com'
p165
sg14
I0
sg15
I0
sg16
I0
sg17
I12
sg18
I0
sg19
I26
sg20
I0
sg21
I0
sg22
I17500
sg23
I0
sg24
I0
sg25
I0
sg26
I0
sg27
I0
sg28
I0
sg29
I0
sg30
I0
sg31
I0
sg32
I0
sg33
I0
sg34
I0
sg35
I0
sg36
I0
ssS'GOLD JOSEPH'
p166
(dp167
g3
I0
sg4
F0.12709987503336093
sg5
I0
sg6
F0.5026099262657373
sg7
I0
sg8
F0.0
sg9
I00
sg10
F0.1419696474990603
sg11
I0
sg12
S'joe.gold@enron.com'
p168
sg14
I304805
sg15
I0
sg16
F0.34932903208377564
sg17
I0
sg18
I0
sg19
I0
sg20
I819288
sg21
F0.0
sg22
I0
sg23
I750000
sg24
I877611
sg25
I0
sg26
F0.4973900737342627
sg27
F0.0
sg28
I0
sg29
F0.0
sg30
I441096
sg31
I272880
sg32
F0.38160144538380314
sg33
I2146973
sg34
F0.0
sg35
I436515
sg36
F0.0
ssS'BANNANTINE JAMES M'
p169
(dp170
g3
I566
sg4
F0.0005206303884426602
sg5
I0
sg6
F0.33518763372541976
sg7
I56301
sg8
F0.0614507578610277
sg9
I00
sg10
F0.0
sg11
I-5104
sg12
S'james.bannantine@enron.com'
p171
sg14
I0
sg15
I-560222
sg16
F0.0
sg17
I465
sg18
I0
sg19
I29
sg20
I864523
sg21
F0.0
sg22
I0
sg23
I0
sg24
I5243487
sg25
I39
sg26
F0.7716538631639595
sg27
F-0.005570854303168424
sg28
I0
sg29
F0.0
sg30
I1757552
sg31
I477
sg32
F0.943599466053698
sg33
I916197
sg34
F-0.10684149688937915
sg35
I4046157
sg36
F0.0
ssS'DUNCAN JOHN H'
p172
(dp173
g3
I0
sg4
F0.0
sg5
I0
sg6
F0.0
sg7
I0
sg8
F0.0
sg9
I00
sg10
F0.0
sg11
I-25000
sg12
I0
sg14
I0
sg15
I0
sg16
F0.0
sg17
I0
sg18
I0
sg19
I0
sg20
I0
sg21
F0.0
sg22
I102492
sg23
I0
sg24
I371750
sg25
I0
sg26
F1.0
sg27
F-0.3226139472461673
sg28
I0
sg29
F0.0
sg30
I0
sg31
I0
sg32
F0.0
sg33
I77492
sg34
F0.0
sg35
I371750
sg36
F1.3226139472461673
ssS'SHAPIRO RICHARD S'
p174
(dp175
g3
I15149
sg4
F0.25443384130082036
sg5
I0
sg6
F0.3841576654937533
sg7
I137767
sg8
F0.1302702099573731
sg9
I00
sg10
F0.0
sg11
I0
sg12
S'richard.shapiro@enron.com'
p176
sg14
I0
sg15
I0
sg16
F0.6146293123338137
sg17
I4527
sg18
I0
sg19
I1215
sg20
I705
sg21
F0.0
sg22
I0
sg23
I650000
sg24
I987001
sg25
I74
sg26
F0.6158423345062467
sg27
F0.0
sg28
I65
sg29
F0.0
sg30
I379164
sg31
I269076
sg32
F0.0006666364079928287
sg33
I1057548
sg34
F0.0
sg35
I607837
sg36
F0.0
ssS'SHERRIFF JOHN R'
p177
(dp178
g3
I3187
sg4
F0.09890233584629565
sg5
I0
sg6
F0.41336894875074387
sg7
I0
sg8
F0.0
sg9
I00
sg10
F0.1278829022915596
sg11
I0
sg12
S'john.sherriff@enron.com'
p179
sg14
I554422
sg15
I0
sg16
F0.34598979376240374
sg17
I2103
sg18
I0
sg19
I92
sg20
I1852186
sg21
F0.0
sg22
I0
sg23
I1500000
sg24
I3128982
sg25
I28
sg26
F0.5866310512492562
sg27
F0.0
sg28
I23
sg29
F0.0
sg30
I1293424
sg31
I428780
sg32
F0.42722496809974103
sg33
I4335388
sg34
F0.0
sg35
I1835558
sg36
F0.0
ssS'SHELBY REX'
p180
(dp181
g3
I225
sg4
F0.10571664541627888
sg5
I0
sg6
F0.34857812911049657
sg7
I22884
sg8
F0.011419817005466881
sg9
I01
sg10
F0.0
sg11
I-4167
sg12
S'rex.shelby@enron.com'
p182
sg14
I0
sg15
I0
sg16
F0.09980612659908128
sg17
I91
sg18
I0
sg19
I39
sg20
I1573324
sg21
F0.0
sg22
I0
sg23
I200000
sg24
I2493616
sg25
I13
sg26
F0.6514218708895034
sg27
F-0.0020794606476918585
sg28
I14
sg29
F0.0
sg30
I869220
sg31
I211844
sg32
F0.7851368716268649
sg33
I2003885
sg34
F0.0
sg35
I1624396
sg36
F0.0
ssS'LEMAISTRE CHARLES'
p183
(dp184
g3
I0
sg4
F0.0
sg5
I0
sg6
F0.0
sg7
I0
sg8
F0.0
sg9
I00
sg10
F0.0
sg11
I-25000
sg12
I0
sg14
I0
sg15
I0
sg16
F0.0
sg17
I0
sg18
I0
sg19
I0
sg20
I0
sg21
F0.0
sg22
I112492
sg23
I0
sg24
I412878
sg25
I0
sg26
F1.0
sg27
F-0.28574041055182187
sg28
I0
sg29
F0.0
sg30
I0
sg31
I0
sg32
F0.0
sg33
I87492
sg34
F0.0
sg35
I412878
sg36
F1.285740410551822
ssS'DEFFNER JOSEPH M'
p185
(dp186
g3
I714
sg4
F0.17053834487928257
sg5
I0
sg6
F0.8908492503658667
sg7
I41626
sg8
F0.034440106267410966
sg9
I00
sg10
F0.2774577234581752
sg11
I0
sg12
S'joseph.deffner@enron.com'
p187
sg14
I335349
sg15
I0
sg16
F0.49642203815996205
sg17
I552
sg18
I0
sg19
I74
sg20
I25553
sg21
F0.0
sg22
I0
sg23
I600000
sg24
I159211
sg25
I115
sg26
F0.10915074963413332
sg27
F0.0
sg28
I4
sg29
F0.0
sg30
I141833
sg31
I206121
sg32
F0.021141787235169185
sg33
I1208649
sg34
F0.0
sg35
I17378
sg36
F0.0
ssS'KISHKILL JOSEPH G'
p188
(dp189
g3
I0
sg4
F0.2471939122934447
sg5
I0
sg6
F1.0
sg7
I116335
sg8
F0.16503853050662792
sg9
I00
sg10
F0.0
sg11
I-51042
sg12
S'joe.kishkill@enron.com'
p190
sg14
I0
sg15
I0
sg16
F0.0
sg17
I0
sg18
I0
sg19
I0
sg20
I465357
sg21
F0.0
sg22
I0
sg23
I0
sg24
I1034346
sg25
I0
sg26
F0.0
sg27
F-0.07241068185945161
sg28
I0
sg29
F0.0
sg30
I1034346
sg31
I174246
sg32
F0.660178239059379
sg33
I704896
sg34
F0.0
sg35
I0
sg36
F0.0
ssS'WHALLEY LAWRENCE G'
p191
(dp192
g3
I6019
sg4
F0.10910869608904103
sg5
I0
sg6
F0.4599628203805902
sg7
I57838
sg8
F0.012364956706190004
sg9
I00
sg10
F0.17281308644181792
sg11
I0
sg12
S'greg.whalley@enron.com'
p193
sg14
I808346
sg15
I0
sg16
F0.6413581057189047
sg17
I3920
sg18
I0
sg19
I556
sg20
I301026
sg21
F0.0
sg22
I0
sg23
I3000000
sg24
I6079137
sg25
I186
sg26
F0.5400371796194098
sg27
F0.0
sg28
I24
sg29
F0.0
sg30
I2796177
sg31
I510364
sg32
F0.06435515504404633
sg33
I4677574
sg34
F0.0
sg35
I3282960
sg36
F0.0
ssS'MCCONNELL MICHAEL S'
p194
(dp195
g3
I3329
sg4
F0.17371478715729402
sg5
I0
sg6
F0.47666430527533965
sg7
I81364
sg8
F0.038719612594486245
sg9
I00
sg10
F0.26383910640898006
sg11
I0
sg12
S'mike.mcconnell@enron.com'
p196
sg14
I554422
sg15
I0
sg16
F0.5234695178940917
sg17
I2189
sg18
I0
sg19
I2742
sg20
I540
sg21
F0.0
sg22
I0
sg23
I1100000
sg24
I3101279
sg25
I92
sg26
F0.5233356947246603
sg27
F0.0
sg28
I194
sg29
F0.0
sg30
I1478269
sg31
I365038
sg32
F0.00025697594514800863
sg33
I2101364
sg34
F0.0
sg35
I1623010
sg36
F0.0
ssS'PIRO JIM'
p197
(dp198
g3
I58
sg4
I0
sg5
I0
sg6
F1.0
sg7
I0
sg8
I0
sg9
I00
sg10
I0
sg11
I0
sg12
S'jim.piro@enron.com'
p199
sg14
I0
sg15
I0
sg16
I0
sg17
I3
sg18
I0
sg19
I16
sg20
I0
sg21
I0
sg22
I0
sg23
I0
sg24
I47304
sg25
I0
sg26
F0.0
sg27
I0
sg28
I1
sg29
I0
sg30
I47304
sg31
I0
sg32
I0
sg33
I0
sg34
F0.0
sg35
I0
sg36
I0
ssS'DELAINEY DAVID W'
p200
(dp201
g3
I3093
sg4
F0.07690914386942319
sg5
I0
sg6
F0.3660908827558386
sg7
I86174
sg8
F0.018149616921220586
sg9
I01
sg10
F0.27274362418199405
sg11
I0
sg12
S'david.delainey@enron.com'
p202
sg14
I1294981
sg15
I0
sg16
F0.6318477819720769
sg17
I2097
sg18
I0
sg19
I3069
sg20
I1661
sg21
F0.0
sg22
I0
sg23
I3000000
sg24
I3614261
sg25
I66
sg26
F0.6339091172441614
sg27
F0.0
sg28
I609
sg29
F0.0
sg30
I1323148
sg31
I365163
sg32
F0.0003498330552852066
sg33
I4747979
sg34
F0.0
sg35
I2291113
sg36
F0.0
ssS'SULLIVAN-SHAKLOVITZ COLLEEN'
p203
(dp204
g3
I0
sg4
F0.162883897229816
sg5
I181993
sg6
F0.0
sg7
I0
sg8
F0.0
sg9
I00
sg10
F0.5547792778549386
sg11
I0
sg12
I0
sg14
I554422
sg15
I0
sg16
F0.10006444150032621
sg17
I0
sg18
I0
sg19
I0
sg20
I162
sg21
F0.0
sg22
I0
sg23
I100000
sg24
I1362375
sg25
I0
sg26
F1.0
sg27
F0.0
sg28
I0
sg29
F0.18211027901968868
sg30
I0
sg31
I162779
sg32
F0.00016210439523052847
sg33
I999356
sg34
F0.0
sg35
I1362375
sg36
F0.0
ssS'WROBEL BRUCE'
p205
(dp206
g3
I0
sg4
I0
sg5
I0
sg6
F0.0
sg7
I0
sg8
I0
sg9
I00
sg10
I0
sg11
I0
sg12
I0
sg14
I0
sg15
I0
sg16
I0
sg17
I0
sg18
I0
sg19
I0
sg20
I0
sg21
I0
sg22
I0
sg23
I0
sg24
I139130
sg25
I0
sg26
F1.0
sg27
I0
sg28
I0
sg29
I0
sg30
I0
sg31
I0
sg32
I0
sg33
I0
sg34
F0.0
sg35
I139130
sg36
I0
ssS'LINDHOLM TOD A'
p207
(dp208
g3
I0
sg4
F0.2699622897421934
sg5
I204075
sg6
F0.1680195991916998
sg7
I57727
sg8
F0.06590675302464125
sg9
I00
sg10
F0.19979700624165847
sg11
I0
sg12
S'tod.lindholm@enron.com'
p209
sg14
I175000
sg15
I0
sg16
F0.22833943570475254
sg17
I0
sg18
I0
sg19
I0
sg20
I2630
sg21
F0.0
sg22
I0
sg23
I200000
sg24
I3064208
sg25
I0
sg26
F0.8319804008083003
sg27
F0.0
sg28
I0
sg29
F0.23299185170723688
sg30
I514847
sg31
I236457
sg32
F0.003002663579517496
sg33
I875889
sg34
F0.0
sg35
I2549361
sg36
F0.0
ssS'MEYER JEROME J'
p210
(dp211
g3
I0
sg4
F0.0
sg5
I0
sg6
I0
sg7
I2151
sg8
F1.0
sg9
I00
sg10
F0.0
sg11
I-38346
sg12
I0
sg14
I0
sg15
I0
sg16
F0.0
sg17
I0
sg18
I0
sg19
I0
sg20
I0
sg21
F0.0
sg22
I38346
sg23
I0
sg24
I0
sg25
I0
sg26
I0
sg27
F-17.82705718270572
sg28
I0
sg29
F0.0
sg30
I0
sg31
I0
sg32
F0.0
sg33
I2151
sg34
I0
sg35
I0
sg36
F17.82705718270572
ssS'LAY KENNETH L'
p212
(dp213
g3
I4273
sg4
F0.010354607410233042
sg5
I202911
sg6
F0.30058380277872904
sg7
I99832
sg8
F0.0009640034718879749
sg9
I01
sg10
F0.03476252603170035
sg11
I-300000
sg12
S'kenneth.lay@enron.com'
p214
sg14
I3600000
sg15
I0
sg16
F0.06759380061719514
sg17
I2411
sg18
I81525000
sg19
I36
sg20
I10359729
sg21
F0.7872263707595476
sg22
I0
sg23
I7000000
sg24
I49110078
sg25
I123
sg26
F0.6994161972212709
sg27
F-0.002896877169308363
sg28
I16
sg29
F0.001959360811005097
sg30
I14761694
sg31
I1072321
sg32
F0.10003620806773919
sg33
I103559793
sg34
F0.0
sg35
I34348384
sg36
F0.0
ssS'BUTTS ROBERT H'
p215
(dp216
g3
I0
sg4
F0.20566192349372672
sg5
I0
sg6
F1.0
sg7
I9410
sg8
F0.007400230578916657
sg9
I00
sg10
F0.13762384179706855
sg11
I-75000
sg12
S'bob.butts@enron.com'
p217
sg14
I175000
sg15
I0
sg16
F0.5898164648445794
sg17
I0
sg18
I0
sg19
I0
sg20
I150656
sg21
F0.0
sg22
I0
sg23
I750000
sg24
I417619
sg25
I0
sg26
F0.0
sg27
F-0.058981646484457945
sg28
I0
sg29
F0.0
sg30
I417619
sg31
I261516
sg32
F0.11847918577016661
sg33
I1271582
sg34
F0.0
sg35
I0
sg36
F0.0
ssS'OLSON CINDY K'
p218
(dp219
g3
I1184
sg4
F0.2490077991339004
sg5
I77716
sg6
F0.372005049941249
sg7
I63791
sg8
F0.04826957898902582
sg9
I00
sg10
F0.07566832153285859
sg11
I0
sg12
S'cindy.olson@enron.com'
p220
sg14
I100000
sg15
I0
sg16
F0.5675124114964394
sg17
I856
sg18
I0
sg19
I52
sg20
I972
sg21
F0.0
sg22
I0
sg23
I750000
sg24
I2606763
sg25
I20
sg26
F0.6279949500587511
sg27
F0.0
sg28
I15
sg29
F0.05880639276247638
sg30
I969729
sg31
I329078
sg32
F0.0007354960852993855
sg33
I1321557
sg34
F0.0
sg35
I1637034
sg36
F0.0
ssS'MCDONALD REBECCA'
p221
(dp222
g3
I894
sg4
I0
sg5
I0
sg6
F0.5522548046963224
sg7
I0
sg8
I0
sg9
I00
sg10
I0
sg11
I0
sg12
S'rebecca.mcdonald@enron.com'
p223
sg14
I0
sg15
I0
sg16
I0
sg17
I720
sg18
I0
sg19
I13
sg20
I0
sg21
I0
sg22
I0
sg23
I0
sg24
I1691366
sg25
I54
sg26
F0.4477451953036776
sg27
I0
sg28
I1
sg29
I0
sg30
I934065
sg31
I0
sg32
I0
sg33
I0
sg34
F0.0
sg35
I757301
sg36
I0
ssS'CUMBERLAND MICHAEL S'
p224
(dp225
g3
I0
sg4
F0.2288478580516761
sg5
I0
sg6
F1.0
sg7
I22344
sg8
F0.02765497131031888
sg9
I00
sg10
F0.3403650693849665
sg11
I0
sg12
I0
sg14
I275000
sg15
I0
sg16
F0.4022496274549604
sg17
I0
sg18
I0
sg19
I0
sg20
I713
sg21
F0.0
sg22
I0
sg23
I325000
sg24
I207940
sg25
I0
sg26
F0.0
sg27
F0.0
sg28
I0
sg29
F0.0
sg30
I207940
sg31
I184899
sg32
F0.0008824737980781132
sg33
I807956
sg34
F0.0
sg35
I0
sg36
F0.0
ssS'GAHN ROBERT S'
p226
(dp227
g3
I0
sg4
F0.21320363985631563
sg5
I73122
sg6
F0.7387471085067183
sg7
I50080
sg8
F0.055608299050061906
sg9
I00
sg10
F0.0
sg11
I-1042
sg12
I0
sg14
I0
sg15
I0
sg16
F0.5661542219779365
sg17
I0
sg18
I0
sg19
I0
sg20
I76547
sg21
F0.0
sg22
I0
sg23
I509870
sg24
I318607
sg25
I0
sg26
F0.2612528914932817
sg27
F-0.0011570257110655852
sg28
I0
sg29
F0.08119389063775213
sg30
I235370
sg31
I192008
sg32
F0.08499697418899937
sg33
I900585
sg34
F0.0
sg35
I83237
sg36
F0.0
ssS'MCCLELLAN GEORGE'
p228
(dp229
g3
I1744
sg4
F0.1997424859508494
sg5
I0
sg6
F0.46535937231302904
sg7
I228763
sg8
F0.17346786344475845
sg9
I00
sg10
F0.0
sg11
I-125000
sg12
S'george.mcclellan@enron.com'
p230
sg14
I0
sg15
I0
sg16
F0.6824577274309334
sg17
I1469
sg18
I0
sg19
I49
sg20
I51587
sg21
F0.0
sg22
I0
sg23
I900000
sg24
I947861
sg25
I52
sg26
F0.534640627686971
sg27
F-0.09478579547651853
sg28
I0
sg29
F0.0
sg30
I441096
sg31
I263413
sg32
F0.03911771864997729
sg33
I1318763
sg34
F0.0
sg35
I506765
sg36
F0.0
ssS'HERMANN ROBERT J'
p231
(dp232
g3
I0
sg4
F0.20244384995001777
sg5
I0
sg6
F0.7193668317039148
sg7
I48357
sg8
F0.0372704844307459
sg9
I00
sg10
F0.11561041141121005
sg11
I-280000
sg12
S'robert.hermann@enron.com'
p233
sg14
I150000
sg15
I0
sg16
F0.5395152532523135
sg17
I0
sg18
I0
sg19
I0
sg20
I416441
sg21
F0.0
sg22
I0
sg23
I700000
sg24
I668132
sg25
I0
sg26
F0.2806331682960852
sg27
F-0.21580610130092542
sg28
I0
sg29
F0.0
sg30
I480632
sg31
I262663
sg32
F0.32096610225663813
sg33
I1297461
sg34
F0.0
sg35
I187500
sg36
F0.0
ssS'SCRIMSHAW MATTHEW'
p234
(dp235
g3
I0
sg4
I0
sg5
I0
sg6
F0.0
sg7
I0
sg8
I0
sg9
I00
sg10
I0
sg11
I0
sg12
S'matthew.scrimshaw@enron.com'
p236
sg14
I0
sg15
I0
sg16
I0
sg17
I0
sg18
I0
sg19
I0
sg20
I0
sg21
I0
sg22
I0
sg23
I0
sg24
I759557
sg25
I0
sg26
F1.0
sg27
I0
sg28
I0
sg29
I0
sg30
I0
sg31
I0
sg32
I0
sg33
I0
sg34
F0.0
sg35
I759557
sg36
I0
ssS'GATHMANN WILLIAM D'
p237
(dp238
g3
I0
sg4
I0
sg5
I0
sg6
F0.13571421227947528
sg7
I0
sg8
I0
sg9
I00
sg10
I0
sg11
I0
sg12
I0
sg14
I0
sg15
I-72419
sg16
I0
sg17
I0
sg18
I0
sg19
I0
sg20
I0
sg21
I0
sg22
I0
sg23
I0
sg24
I1945360
sg25
I0
sg26
F0.9015123164864087
sg27
I0
sg28
I0
sg29
I0
sg30
I264013
sg31
I0
sg32
I0
sg33
I0
sg34
F-0.03722652876588395
sg35
I1753766
sg36
I0
ssS'HAEDICKE MARK E'
p239
(dp240
g3
I4009
sg4
F0.09694705841959127
sg5
I2157527
sg6
F0.6526869830928883
sg7
I76169
sg8
F0.019737682573369456
sg9
I00
sg10
F0.25481457296003046
sg11
I-934484
sg12
S'mark.haedicke@enron.com'
p241
sg14
I983346
sg15
I-329825
sg16
F0.29799964499172726
sg17
I1847
sg18
I0
sg19
I1941
sg20
I52382
sg21
F0.0
sg22
I0
sg23
I1150000
sg24
I803094
sg25
I180
sg26
F0.7580059121348186
sg27
F-0.2421529567395211
sg28
I61
sg29
F0.5590802435304925
sg30
I524169
sg31
I374125
sg32
F0.013573754264310137
sg33
I3859065
sg34
F-0.41069289522770686
sg35
I608750
sg36
F0.0
ssS'BOWEN JR RAYMOND M'
p242
(dp243
g3
I1858
sg4
F0.10436100837994162
sg5
I0
sg6
F1.0
sg7
I65907
sg8
F0.024688069961331126
sg9
I01
sg10
F0.36495992454269177
sg11
I-833
sg12
S'raymond.bowen@enron.com'
p244
sg14
I974293
sg15
I0
sg16
F0.5056958205926081
sg17
I1593
sg18
I0
sg19
I27
sg20
I1621
sg21
F0.0
sg22
I0
sg23
I1350000
sg24
I252055
sg25
I140
sg26
F0.0
sg27
F-0.00031203305078047593
sg28
I15
sg29
F0.0
sg30
I252055
sg31
I278601
sg32
F0.000607209574207865
sg33
I2669589
sg34
F0.0
sg35
I0
sg36
F0.0
ssS'GILLIS JOHN'
p245
(dp246
g3
I0
sg4
I0
sg5
I0
sg6
F0.8855337980640114
sg7
I0
sg8
I0
sg9
I00
sg10
I0
sg11
I0
sg12
I0
sg14
I0
sg15
I0
sg16
I0
sg17
I0
sg18
I0
sg19
I0
sg20
I0
sg21
I0
sg22
I0
sg23
I0
sg24
I85641
sg25
I0
sg26
F0.11446620193598861
sg27
I0
sg28
I0
sg29
I0
sg30
I75838
sg31
I0
sg32
I0
sg33
I0
sg34
F0.0
sg35
I9803
sg36
I0
ssS'FITZGERALD JAY L'
p247
(dp248
g3
I936
sg4
F0.14076122180545456
sg5
I0
sg6
F0.5901515880476377
sg7
I23870
sg8
F0.01687096293123616
sg9
I00
sg10
F0.3932665986739296
sg11
I0
sg12
S'jay.fitzgerald@enron.com'
p249
sg14
I556416
sg15
I0
sg16
F0.24737482303865338
sg17
I723
sg18
I0
sg19
I16
sg20
I285414
sg21
F0.0
sg22
I0
sg23
I350000
sg24
I1621236
sg25
I1
sg26
F0.40984841195236227
sg27
F0.0
sg28
I8
sg29
F0.0
sg30
I956775
sg31
I199157
sg32
F0.20172639355072633
sg33
I1414857
sg34
F0.0
sg35
I664461
sg36
F0.0
ssS'MORAN MICHAEL P'
p250
(dp251
g3
I672
sg4
I0
sg5
I0
sg6
F0.7307645348442848
sg7
I0
sg8
I0
sg9
I00
sg10
I0
sg11
I0
sg12
S'michael.moran@enron.com'
p252
sg14
I0
sg15
I0
sg16
I0
sg17
I127
sg18
I0
sg19
I19
sg20
I0
sg21
I0
sg22
I0
sg23
I0
sg24
I221141
sg25
I0
sg26
F0.2692354651557151
sg27
I0
sg28
I0
sg29
I0
sg30
I161602
sg31
I0
sg32
I0
sg33
I0
sg34
F0.0
sg35
I59539
sg36
I0
ssS'REDMOND BRIAN L'
p253
(dp254
g3
I1671
sg4
F0.8682943449685732
sg5
I0
sg6
F0.048323110685949015
sg7
I14689
sg8
F0.1317056550314268
sg9
I00
sg10
F0.0
sg11
I0
sg12
S'brian.redmond@enron.com'
p255
sg14
I0
sg15
I0
sg16
F0.0
sg17
I1063
sg18
I0
sg19
I221
sg20
I0
sg21
F0.0
sg22
I0
sg23
I0
sg24
I7890324
sg25
I204
sg26
F0.951676889314051
sg27
F0.0
sg28
I49
sg29
F0.0
sg30
I381285
sg31
I96840
sg32
F0.0
sg33
I111529
sg34
F0.0
sg35
I7509039
sg36
F0.0
ssS'BAZELIDES PHILIP J'
p256
(dp257
g3
I0
sg4
F0.0939595598835533
sg5
I684694
sg6
F0.0
sg7
I0
sg8
F0.0
sg9
I00
sg10
F0.10899439158458663
sg11
I0
sg12
I0
sg14
I93750
sg15
I0
sg16
F0.0
sg17
I0
sg18
I0
sg19
I0
sg20
I874
sg21
F0.0
sg22
I0
sg23
I0
sg24
I1599641
sg25
I0
sg26
F1.0
sg27
F0.0
sg28
I0
sg29
F0.7960299301505809
sg30
I0
sg31
I80818
sg32
F0.0010161183812792396
sg33
I860136
sg34
F0.0
sg35
I1599641
sg36
F0.0
ssS'BELDEN TIMOTHY N'
p258
(dp259
g3
I7991
sg4
F0.03889738132153562
sg5
I2144013
sg6
F0.1418639512741907
sg7
I17355
sg8
F0.003154519660536968
sg9
I01
sg10
F0.0
sg11
I-2334434
sg12
S'tim.belden@enron.com'
p260
sg14
I0
sg15
I0
sg16
F0.9542624640333864
sg17
I5521
sg18
I0
sg19
I484
sg20
I210698
sg21
F0.0
sg22
I0
sg23
I5249999
sg24
I1110705
sg25
I228
sg26
F0.8581360487258093
sg27
F-0.4243167933866872
sg28
I108
sg29
F0.38970505104850744
sg30
I157569
sg31
I213999
sg32
F0.03829737732272072
sg33
I5501630
sg34
F0.0
sg35
I953136
sg36
F0.0
ssS'DURAN WILLIAM D'
p261
(dp262
g3
I904
sg4
F0.10065242637929396
sg5
I0
sg6
F0.11520497772577411
sg7
I25785
sg8
F0.01231808903133529
sg9
I00
sg10
F0.5279881218939044
sg11
I0
sg12
S'w.duran@enron.com'
p263
sg14
I1105218
sg15
I0
sg16
F0.3582922929416896
sg17
I599
sg18
I0
sg19
I12
sg20
I1568
sg21
F0.0
sg22
I0
sg23
I750000
sg24
I1640910
sg25
I106
sg26
F0.8847950222742259
sg27
F0.0
sg28
I3
sg29
F0.0
sg30
I189041
sg31
I210692
sg32
F0.0007490697537767591
sg33
I2093263
sg34
F0.0
sg35
I1451869
sg36
F0.0
ssS'THORN TERENCE H'
p264
(dp265
g3
I266
sg4
F0.24366917438419755
sg5
I16586
sg6
F0.07582720397459751
sg7
I46145
sg8
F0.050627953388710116
sg9
I00
sg10
F0.21942985540669677
sg11
I0
sg12
S'terence.thorn@enron.com'
p266
sg14
I200000
sg15
I0
sg16
F0.0
sg17
I73
sg18
I0
sg19
I41
sg20
I426629
sg21
F0.0
sg22
I0
sg23
I0
sg24
I4817796
sg25
I0
sg26
F0.9241727960254025
sg27
F0.0
sg28
I0
sg29
F0.018197317908877363
sg30
I365320
sg31
I222093
sg32
F0.4680756989115182
sg33
I911453
sg34
F0.0
sg35
I4452476
sg36
F0.0
ssS'FASTOW ANDREW S'
p267
(dp268
g3
I0
sg4
F0.1817998806146489
sg5
I0
sg6
F1.0
sg7
I55921
sg8
F0.02306892957048088
sg9
I01
sg10
F0.7161697846154608
sg11
I-1386055
sg12
S'andrew.fastow@enron.com'
p269
sg14
I1736055
sg15
I0
sg16
F0.5362852674599013
sg17
I0
sg18
I0
sg19
I0
sg20
I277464
sg21
F0.0
sg22
I0
sg23
I1300000
sg24
I1794412
sg25
I0
sg26
F0.0
sg27
F-0.5717852895301028
sg28
I0
sg29
F0.0
sg30
I1794412
sg31
I440698
sg32
F0.11446142726961082
sg33
I2424083
sg34
F0.0
sg35
I0
sg36
F0.0
ssS'FOY JOE'
p270
(dp271
g3
I57
sg4
F0.0
sg5
I181755
sg6
F0.0
sg7
I0
sg8
F0.0
sg9
I00
sg10
F0.0
sg11
I0
sg12
S'tracy.foy@enron.com'
p272
sg14
I0
sg15
I0
sg16
F0.0
sg17
I2
sg18
I0
sg19
I13
sg20
I0
sg21
F0.0
sg22
I0
sg23
I0
sg24
I343434
sg25
I0
sg26
F1.0
sg27
F0.0
sg28
I0
sg29
F1.0
sg30
I0
sg31
I0
sg32
F0.0
sg33
I181755
sg34
F0.0
sg35
I343434
sg36
F0.0
ssS'CALGER CHRISTOPHER F'
p273
(dp274
g3
I2598
sg4
F0.14651951415759315
sg5
I0
sg6
F1.0
sg7
I35818
sg8
F0.021849609924254117
sg9
I01
sg10
F0.22894204039902472
sg11
I-262500
sg12
S'christopher.calger@enron.com'
p275
sg14
I375304
sg15
I0
sg16
F0.7625219835087845
sg17
I2188
sg18
I0
sg19
I144
sg20
I486
sg21
F0.0
sg22
I0
sg23
I1250000
sg24
I126027
sg25
I199
sg26
F0.0
sg27
F-0.16012961653684477
sg28
I25
sg29
F0.0
sg30
I126027
sg31
I240189
sg32
F0.00029646854718821546
sg33
I1639297
sg34
F0.0
sg35
I0
sg36
F0.0
ssS'RICE KENNETH D'
p276
(dp277
g3
I905
sg4
F0.8328601128601129
sg5
I0
sg6
F0.12191900832466121
sg7
I46950
sg8
F0.09296109296109296
sg9
I01
sg10
F3.2016849816849815
sg11
I-3504386
sg12
S'ken.rice@enron.com'
p278
sg14
I1617011
sg15
I0
sg16
F3.465003465003465
sg17
I864
sg18
I0
sg19
I18
sg20
I174839
sg21
F0.0
sg22
I0
sg23
I1750000
sg24
I22542539
sg25
I42
sg26
F0.8780809916753388
sg27
F-6.938691218691218
sg28
I4
sg29
F0.0
sg30
I2748364
sg31
I420636
sg32
F0.3461815661815662
sg33
I505050
sg34
F0.0
sg35
I19794175
sg36
F0.0
ssS'KAMINSKI WINCENTY J'
p279
(dp280
g3
I4607
sg4
F0.2531244795601116
sg5
I0
sg6
F0.12912112962930708
sg7
I83585
sg8
F0.07690778886311546
sg9
I00
sg10
F0.29762582798823356
sg11
I0
sg12
S'vince.kaminski@enron.com'
p281
sg14
I323466
sg15
I0
sg16
F0.368045887961311
sg17
I583
sg18
I0
sg19
I14368
sg20
I4669
sg21
F0.0
sg22
I0
sg23
I400000
sg24
I976037
sg25
I41
sg26
F0.8708788703706929
sg27
F0.0
sg28
I171
sg29
F0.0
sg30
I126027
sg31
I275101
sg32
F0.004296015627228403
sg33
I1086821
sg34
F0.0
sg35
I850010
sg36
F0.0
ssS'LOCKHART EUGENE E'
p282
(dp283
g3
I0
sg4
I0
sg5
I0
sg6
I0
sg7
I0
sg8
I0
sg9
I00
sg10
I0
sg11
I0
sg12
I0
sg14
I0
sg15
I0
sg16
I0
sg17
I0
sg18
I0
sg19
I0
sg20
I0
sg21
I0
sg22
I0
sg23
I0
sg24
I0
sg25
I0
sg26
I0
sg27
I0
sg28
I0
sg29
I0
sg30
I0
sg31
I0
sg32
I0
sg33
I0
sg34
I0
sg35
I0
sg36
I0
ssS'COX DAVID'
p284
(dp285
g3
I102
sg4
F0.28535500044035145
sg5
I0
sg6
F0.7628265268858208
sg7
I27861
sg8
F0.025296147696598763
sg9
I00
sg10
F0.0
sg11
I-41250
sg12
S'chip.cox@enron.com'
p286
sg14
I0
sg15
I0
sg16
F0.7263529003725282
sg17
I71
sg18
I0
sg19
I33
sg20
I494
sg21
F0.0
sg22
I0
sg23
I800000
sg24
I495633
sg25
I0
sg26
F0.23717347311417925
sg27
F-0.037452571425458485
sg28
I4
sg29
F0.0
sg30
I378082
sg31
I314288
sg32
F0.0004485229159800362
sg33
I1101393
sg34
F0.0
sg35
I117551
sg36
F0.0
ssS'OVERDYKE JR JERE C'
p287
(dp288
g3
I0
sg4
F0.38008783483527964
sg5
I0
sg6
F0.2793006836449863
sg7
I18834
sg8
F0.07540024100533654
sg9
I00
sg10
F0.5438073238399116
sg11
I0
sg12
S'jere.overdyke@enron.com'
p289
sg14
I135836
sg15
I0
sg16
F0.0
sg17
I0
sg18
I0
sg19
I0
sg20
I176
sg21
F0.0
sg22
I0
sg23
I0
sg24
I7307594
sg25
I0
sg26
F0.7206993163550137
sg27
F0.0
sg28
I0
sg29
F0.0
sg30
I2041016
sg31
I94941
sg32
F0.0007046003194721903
sg33
I249787
sg34
F0.0
sg35
I5266578
sg36
F0.0
ssS'PEREIRA PAULO V. FERRAZ'
p290
(dp291
g3
I0
sg4
F0.0
sg5
I0
sg6
I0
sg7
I27942
sg8
F1.0
sg9
I00
sg10
F0.0
sg11
I-101250
sg12
I0
sg14
I0
sg15
I0
sg16
F0.0
sg17
I0
sg18
I0
sg19
I0
sg20
I0
sg21
F0.0
sg22
I101250
sg23
I0
sg24
I0
sg25
I0
sg26
I0
sg27
F-3.623577410350011
sg28
I0
sg29
F0.0
sg30
I0
sg31
I0
sg32
F0.0
sg33
I27942
sg34
I0
sg35
I0
sg36
F3.623577410350011
ssS'STABLER FRANK'
p292
(dp293
g3
I0
sg4
F0.21536264698715119
sg5
I0
sg6
F1.0
sg7
I16514
sg8
F0.01484955763353047
sg9
I00
sg10
F0.0
sg11
I0
sg12
S'frank.stabler@enron.com'
p294
sg14
I0
sg15
I0
sg16
F0.44960511183027946
sg17
I0
sg18
I0
sg19
I0
sg20
I356071
sg21
F0.0
sg22
I0
sg23
I500000
sg24
I511734
sg25
I0
sg26
F0.0
sg27
F0.0
sg28
I0
sg29
F0.0
sg30
I511734
sg31
I239502
sg32
F0.3201826835490389
sg33
I1112087
sg34
F0.0
sg35
I0
sg36
F0.0
ssS'SKILLING JEFFREY K'
p295
(dp296
g3
I3627
sg4
F0.12798506826665756
sg5
I0
sg6
F0.2622732438730739
sg7
I29336
sg8
F0.003378666306717852
sg9
I01
sg10
F0.22112896471564888
sg11
I0
sg12
S'jeff.skilling@enron.com'
p297
sg14
I1920000
sg15
I0
sg16
F0.6449594804206426
sg17
I2042
sg18
I0
sg19
I108
sg20
I22122
sg21
F0.0
sg22
I0
sg23
I5600000
sg24
I26093672
sg25
I88
sg26
F0.7377267561269261
sg27
F0.0
sg28
I30
sg29
F0.0
sg30
I6843672
sg31
I1111258
sg32
F0.002547820290333117
sg33
I8682716
sg34
F0.0
sg35
I19250000
sg36
F0.0
ssS'BLAKE JR. NORMAN P'
p298
(dp299
g3
I0
sg4
F0.0
sg5
I0
sg6
I0
sg7
I1279
sg8
F1.0
sg9
I00
sg10
F0.0
sg11
I-113784
sg12
I0
sg14
I0
sg15
I0
sg16
F0.0
sg17
I0
sg18
I0
sg19
I0
sg20
I0
sg21
F0.0
sg22
I113784
sg23
I0
sg24
I0
sg25
I0
sg26
I0
sg27
F-88.9632525410477
sg28
I0
sg29
F0.0
sg30
I0
sg31
I0
sg32
F0.0
sg33
I1279
sg34
I0
sg35
I0
sg36
F88.9632525410477
ssS'SHERRICK JEFFREY B'
p300
(dp301
g3
I613
sg4
I0
sg5
I0
sg6
F0.22155857564770573
sg7
I0
sg8
I0
sg9
I00
sg10
I0
sg11
I0
sg12
S'jeffrey.sherrick@enron.com'
p302
sg14
I0
sg15
I0
sg16
I0
sg17
I583
sg18
I0
sg19
I25
sg20
I0
sg21
I0
sg22
I0
sg23
I0
sg24
I1832468
sg25
I39
sg26
F0.7784414243522942
sg27
I0
sg28
I18
sg29
I0
sg30
I405999
sg31
I0
sg32
I0
sg33
I0
sg34
F0.0
sg35
I1426469
sg36
I0
ssS'PRENTICE JAMES'
p303
(dp304
g3
I0
sg4
F0.0
sg5
I564348
sg6
F0.19068618497954412
sg7
I0
sg8
F0.0
sg9
I00
sg10
F0.0
sg11
I0
sg12
S'james.prentice@enron.com'
p305
sg14
I0
sg15
I0
sg16
F0.0
sg17
I0
sg18
I0
sg19
I0
sg20
I0
sg21
F0.0
sg22
I0
sg23
I0
sg24
I1095040
sg25
I0
sg26
F0.8093138150204559
sg27
F0.0
sg28
I0
sg29
F1.0
sg30
I208809
sg31
I0
sg32
F0.0
sg33
I564348
sg34
F0.0
sg35
I886231
sg36
F0.0
ssS'GRAY RODNEY'
p306
(dp307
g3
I0
sg4
F0.005768938951282772
sg5
I93585
sg6
I0
sg7
I0
sg8
F0.0
sg9
I00
sg10
F0.3188614216270239
sg11
I0
sg12
I0
sg14
I365625
sg15
I0
sg16
F0.0
sg17
I0
sg18
I0
sg19
I0
sg20
I680833
sg21
F0.0
sg22
I0
sg23
I0
sg24
I0
sg25
I0
sg26
I0
sg27
F0.0
sg28
I0
sg29
F0.08161544244229753
sg30
I0
sg31
I6615
sg32
F0.5937541969793958
sg33
I1146658
sg34
I0
sg35
I0
sg36
F0.0
ssS'PICKERING MARK R'
p308
(dp309
g3
I898
sg4
F0.47237450331364617
sg5
I0
sg6
F0.0
sg7
I31653
sg8
F0.022826298595937086
sg9
I00
sg10
F0.0
sg11
I0
sg12
S'mark.pickering@enron.com'
p310
sg14
I0
sg15
I0
sg16
F0.21634251346732147
sg17
I728
sg18
I400000
sg19
I67
sg20
I0
sg21
F0.28845668462309526
sg22
I0
sg23
I300000
sg24
I28798
sg25
I7
sg26
F1.0
sg27
F0.0
sg28
I0
sg29
F0.0
sg30
I0
sg31
I655037
sg32
F0.0
sg33
I1386690
sg34
F0.0
sg35
I28798
sg36
F0.0
ssS'NOLES JAMES L'
p311
(dp312
g3
I0
sg4
F0.0
sg5
I774401
sg6
F1.2564543469711558
sg7
I0
sg8
F0.0
sg9
I00
sg10
F0.0
sg11
I0
sg12
I0
sg14
I0
sg15
I-94556
sg16
F0.0
sg17
I0
sg18
I0
sg19
I0
sg20
I0
sg21
F0.0
sg22
I0
sg23
I0
sg24
I368705
sg25
I0
sg26
F0.0
sg27
F0.0
sg28
I0
sg29
F1.0
sg30
I463261
sg31
I0
sg32
F0.0
sg33
I774401
sg34
F-0.2564543469711558
sg35
I0
sg36
F0.0
ssS'KEAN STEVEN J'
p313
(dp314
g3
I12754
sg4
F0.23137791684453757
sg5
I0
sg6
F0.6714062989039662
sg7
I41953
sg8
F0.02400713696308258
sg9
I00
sg10
F0.1716716584970032
sg11
I0
sg12
S'steven.kean@enron.com'
p315
sg14
I300000
sg15
I0
sg16
F0.5722388616566773
sg17
I3639
sg18
I0
sg19
I6759
sg20
I1231
sg21
F0.0
sg22
I0
sg23
I1000000
sg24
I6153642
sg25
I140
sg26
F0.32859370109603386
sg27
F0.0
sg28
I387
sg29
F0.0
sg30
I4131594
sg31
I404338
sg32
F0.0007044260386993697
sg33
I1747522
sg34
F0.0
sg35
I2022048
sg36
F0.0
ssS'FOWLER PEGGY'
p316
(dp317
g3
I517
sg4
I0
sg5
I0
sg6
F0.29721214719421374
sg7
I0
sg8
I0
sg9
I00
sg10
I0
sg11
I0
sg12
S'kulvinder.fowler@enron.com'
p318
sg14
I0
sg15
I0
sg16
I0
sg17
I10
sg18
I0
sg19
I36
sg20
I0
sg21
I0
sg22
I0
sg23
I0
sg24
I1884748
sg25
I0
sg26
F0.7027878528057863
sg27
I0
sg28
I0
sg29
I0
sg30
I560170
sg31
I0
sg32
I0
sg33
I0
sg34
F0.0
sg35
I1324578
sg36
I0
ssS'WASAFF GEORGE'
p319
(dp320
g3
I400
sg4
F0.2513507895919837
sg5
I831299
sg6
F0.1887579768209618
sg7
I0
sg8
F0.0
sg9
I00
sg10
F0.1933497358359234
sg11
I-583325
sg12
S'george.wasaff@enron.com'
p321
sg14
I200000
sg15
I0
sg16
F0.3141933207333755
sg17
I337
sg18
I0
sg19
I30
sg20
I1425
sg21
F0.0
sg22
I0
sg23
I325000
sg24
I2056427
sg25
I22
sg26
F0.8112420231790382
sg27
F-0.5639286732824501
sg28
I7
sg29
F0.8036572102533365
sg30
I388167
sg31
I259996
sg32
F0.0013776168678309544
sg33
I1034395
sg34
F0.0
sg35
I1668260
sg36
F0.0
ssS'WHITE JR THOMAS E'
p322
(dp323
g3
I0
sg4
F0.1641592899766796
sg5
I0
sg6
F0.9143529803607644
sg7
I81353
sg8
F0.042056826059692125
sg9
I00
sg10
F0.0
sg11
I0
sg12
S'thomas.white@enron.com'
p324
sg14
I0
sg15
I0
sg16
F0.23263520370313887
sg17
I0
sg18
I0
sg19
I0
sg20
I1085463
sg21
F0.0
sg22
I0
sg23
I450000
sg24
I15144123
sg25
I0
sg26
F0.08564701963923563
sg27
F0.0
sg28
I0
sg29
F0.0
sg30
I13847074
sg31
I317543
sg32
F0.5611486802604894
sg33
I1934359
sg34
F0.0
sg35
I1297049
sg36
F0.0
ssS'CHRISTODOULOU DIOMEDES'
p325
(dp326
g3
I0
sg4
I0
sg5
I0
sg6
F0.15642447989720107
sg7
I0
sg8
I0
sg9
I00
sg10
I0
sg11
I0
sg12
S'diomedes.christodoulou@enron.com'
p327
sg14
I0
sg15
I0
sg16
I0
sg17
I0
sg18
I0
sg19
I0
sg20
I0
sg21
I0
sg22
I0
sg23
I0
sg24
I6077885
sg25
I0
sg26
F0.8435755201027989
sg27
I0
sg28
I0
sg29
I0
sg30
I950730
sg31
I0
sg32
I0
sg33
I0
sg34
F0.0
sg35
I5127155
sg36
I0
ssS'ALLEN PHILLIP K'
p328
(dp329
g3
I2902
sg4
F0.04503458847276874
sg5
I2869717
sg6
F0.07286730988163911
sg7
I13868
sg8
F0.0030924694755780093
sg9
I00
sg10
F0.06796943744617502
sg11
I-3081055
sg12
S'phillip.allen@enron.com'
p330
sg14
I304805
sg15
I-126027
sg16
F0.9309965431596617
sg17
I1407
sg18
I0
sg19
I2195
sg20
I152
sg21
F0.0
sg22
I0
sg23
I4175000
sg24
I1729541
sg25
I47
sg26
F1.0
sg27
F-0.6870542644993514
sg28
I65
sg29
F0.6399273309812012
sg30
I126027
sg31
I201955
sg32
F3.38949639665314e-05
sg33
I4484442
sg34
F-0.07286730988163911
sg35
I1729541
sg36
F0.0
ssS'SHARP VICTORIA T'
p331
(dp332
g3
I3136
sg4
F0.15740200988131386
sg5
I187469
sg6
F0.43118291320608093
sg7
I116337
sg8
F0.07379396655018582
sg9
I00
sg10
F0.2677799266862077
sg11
I0
sg12
S'vicki.sharp@enron.com'
p333
sg14
I422158
sg15
I0
sg16
F0.38058725882661143
sg17
I2477
sg18
I0
sg19
I136
sg20
I2401
sg21
F0.0
sg22
I0
sg23
I600000
sg24
I494136
sg25
I24
sg26
F0.5688170867939191
sg27
F0.0
sg28
I6
sg29
F0.1189138547082767
sg30
I213063
sg31
I248146
sg32
F0.00152298334740449
sg33
I1576511
sg34
F0.0
sg35
I281073
sg36
F0.0
ssS'JAEDICKE ROBERT'
p334
(dp335
g3
I0
sg4
F0.0
sg5
I0
sg6
F0.10212623045744065
sg7
I0
sg8
F0.0
sg9
I00
sg10
F0.0
sg11
I-25000
sg12
I0
sg14
I0
sg15
I-44093
sg16
F0.0
sg17
I0
sg18
I0
sg19
I0
sg20
I0
sg21
F0.0
sg22
I108750
sg23
I0
sg24
I431750
sg25
I0
sg26
F1.0
sg27
F-0.29850746268656714
sg28
I0
sg29
F0.0
sg30
I44093
sg31
I0
sg32
F0.0
sg33
I83750
sg34
F-0.10212623045744065
sg35
I431750
sg36
F1.2985074626865671
ssS'WINOKUR JR. HERBERT S'
p336
(dp337
g3
I0
sg4
F0.0
sg5
I0
sg6
I0
sg7
I1413
sg8
F0.016625094126506024
sg9
I00
sg10
F0.0
sg11
I-25000
sg12
I0
sg14
I0
sg15
I0
sg16
F0.0
sg17
I0
sg18
I0
sg19
I0
sg20
I0
sg21
F0.0
sg22
I108579
sg23
I0
sg24
I0
sg25
I0
sg26
I0
sg27
F-0.2941453313253012
sg28
I0
sg29
F0.0
sg30
I0
sg31
I0
sg32
F0.0
sg33
I84992
sg34
I0
sg35
I0
sg36
F1.2775202371987953
ssS'BROWN MICHAEL'
p338
(dp339
g3
I1486
sg4
F0.0
sg5
I0
sg6
I0
sg7
I49288
sg8
F1.0
sg9
I00
sg10
F0.0
sg11
I0
sg12
S'michael.brown@enron.com'
p340
sg14
I0
sg15
I0
sg16
F0.0
sg17
I761
sg18
I0
sg19
I41
sg20
I0
sg21
F0.0
sg22
I0
sg23
I0
sg24
I0
sg25
I13
sg26
I0
sg27
F0.0
sg28
I1
sg29
F0.0
sg30
I0
sg31
I0
sg32
F0.0
sg33
I49288
sg34
I0
sg35
I0
sg36
F0.0
ssS'BADUM JAMES P'
p341
(dp342
g3
I0
sg4
F0.0
sg5
I178980
sg6
F0.0
sg7
I3486
sg8
F0.019104929137483146
sg9
I00
sg10
F0.0
sg11
I0
sg12
I0
sg14
I0
sg15
I0
sg16
F0.0
sg17
I0
sg18
I0
sg19
I0
sg20
I0
sg21
F0.0
sg22
I0
sg23
I0
sg24
I257817
sg25
I0
sg26
F1.0
sg27
F0.0
sg28
I0
sg29
F0.9808950708625168
sg30
I0
sg31
I0
sg32
F0.0
sg33
I182466
sg34
F0.0
sg35
I257817
sg36
F0.0
ssS'HUGHES JAMES A'
p343
(dp344
g3
I719
sg4
I0
sg5
I0
sg6
F0.3249552483293008
sg7
I0
sg8
I0
sg9
I00
sg10
I0
sg11
I0
sg12
S'james.hughes@enron.com'
p345
sg14
I0
sg15
I0
sg16
I0
sg17
I589
sg18
I0
sg19
I34
sg20
I0
sg21
I0
sg22
I0
sg23
I0
sg24
I1118394
sg25
I35
sg26
F0.6750447516706992
sg27
I0
sg28
I5
sg29
I0
sg30
I363428
sg31
I0
sg32
I0
sg33
I0
sg34
F0.0
sg35
I754966
sg36
I0
ssS'REYNOLDS LAWRENCE'
p346
(dp347
g3
I0
sg4
F0.1936726028265416
sg5
I51365
sg6
F0.047723401670009956
sg7
I8409
sg8
F0.021316940237023893
sg9
I00
sg10
F0.39609607706445277
sg11
I-200000
sg12
I0
sg14
I156250
sg15
I-140264
sg16
F0.2535014893212498
sg17
I0
sg18
I0
sg19
I0
sg20
I202052
sg21
F0.0
sg22
I0
sg23
I100000
sg24
I4221891
sg25
I0
sg26
F0.9854996256416853
sg27
F-0.5070029786424995
sg28
I0
sg29
F0.13021103998985994
sg30
I201483
sg31
I76399
sg32
F0.5122048292033715
sg33
I394475
sg34
F-0.033223027311695165
sg35
I4160672
sg36
F0.0
ssS'DIMICHELE RICHARD G'
p348
(dp349
g3
I0
sg4
F0.11096758610409556
sg5
I0
sg6
F0.015151515151515152
sg7
I35812
sg8
F0.015122346505776025
sg9
I00
sg10
F0.2934196341365057
sg11
I0
sg12
S'richard.dimichele@enron.com'
p350
sg14
I694862
sg15
I0
sg16
F0.42227037042823706
sg17
I0
sg18
I0
sg19
I0
sg20
I374689
sg21
F0.0
sg22
I0
sg23
I1000000
sg24
I8317782
sg25
I0
sg26
F0.9848484848484849
sg27
F0.0
sg28
I0
sg29
F0.0
sg30
I126027
sg31
I262788
sg32
F0.1582200628253857
sg33
I2368151
sg34
F0.0
sg35
I8191755
sg36
F0.0
ssS'CARTER REBECCA C'
p351
(dp352
g3
I312
sg4
F0.5482256568325875
sg5
I0
sg6
I0
sg7
I0
sg8
F0.0
sg9
I00
sg10
F0.1570493155790827
sg11
I-159792
sg12
S'rebecca.carter@enron.com'
p353
sg14
I75000
sg15
I-307301
sg16
F0.6281972623163308
sg17
I196
sg18
I0
sg19
I15
sg20
I540
sg21
F0.0
sg22
I0
sg23
I300000
sg24
I0
sg25
I29
sg26
I0
sg27
F-0.33460298980017045
sg28
I7
sg29
F0.0
sg30
I307301
sg31
I261809
sg32
F0.0011307550721693955
sg33
I477557
sg34
I0
sg35
I0
sg36
F0.0
ssS'BUCHANAN HAROLD G'
p354
(dp355
g3
I1088
sg4
F0.23516811945721608
sg5
I0
sg6
F0.18633816491786634
sg7
I600
sg8
F0.000568916129436005
sg9
I00
sg10
F0.2890141347212358
sg11
I0
sg12
S'john.buchanan@enron.com'
p356
sg14
I304805
sg15
I0
sg16
F0.47409677453000415
sg17
I23
sg18
I0
sg19
I125
sg20
I1215
sg21
F0.0
sg22
I0
sg23
I500000
sg24
I1014505
sg25
I0
sg26
F0.8136618350821336
sg27
F0.0
sg28
I0
sg29
F0.0
sg30
I189041
sg31
I248017
sg32
F0.0011520551621079101
sg33
I1054637
sg34
F0.0
sg35
I825464
sg36
F0.0
ssS'YEAP SOON'
p357
(dp358
g3
I0
sg4
F0.0
sg5
I0
sg6
F0.0
sg7
I55097
sg8
F1.0
sg9
I00
sg10
F0.0
sg11
I0
sg12
I0
sg14
I0
sg15
I0
sg16
F0.0
sg17
I0
sg18
I0
sg19
I0
sg20
I0
sg21
F0.0
sg22
I0
sg23
I0
sg24
I192758
sg25
I0
sg26
F1.0
sg27
F0.0
sg28
I0
sg29
F0.0
sg30
I0
sg31
I0
sg32
F0.0
sg33
I55097
sg34
F0.0
sg35
I192758
sg36
F0.0
ssS'MURRAY JULIA H'
p359
(dp360
g3
I2192
sg4
F0.2823020115883644
sg5
I0
sg6
F0.3297001812670618
sg7
I57580
sg8
F0.07089439222648776
sg9
I00
sg10
F0.15390411650418495
sg11
I0
sg12
S'julia.murray@enron.com'
p361
sg14
I125000
sg15
I0
sg16
F0.4924931728133919
sg17
I395
sg18
I0
sg19
I45
sg20
I330
sg21
F0.0
sg22
I0
sg23
I400000
sg24
I597461
sg25
I11
sg26
F0.6702998187329382
sg27
F0.0
sg28
I2
sg29
F0.0
sg30
I196983
sg31
I229284
sg32
F0.0004063068675710483
sg33
I812194
sg34
F0.0
sg35
I400478
sg36
F0.0
ssS'GARLAND C KEVIN'
p362
(dp363
g3
I209
sg4
F0.14806932023551056
sg5
I0
sg6
F0.2900252523843585
sg7
I48405
sg8
F0.03090070725944784
sg9
I00
sg10
F0.23958597329407733
sg11
I0
sg12
S'kevin.garland@enron.com'
p364
sg14
I375304
sg15
I0
sg16
F0.5426216541789208
sg17
I178
sg18
I0
sg19
I44
sg20
I60814
sg21
F0.0
sg22
I0
sg23
I850000
sg24
I896153
sg25
I10
sg26
F0.7099747476156415
sg27
F0.0
sg28
I27
sg29
F0.0
sg30
I259907
sg31
I231946
sg32
F0.038822345032043404
sg33
I1566469
sg34
F0.0
sg35
I636246
sg36
F0.0
ssS'DODSON KEITH'
p365
(dp366
g3
I176
sg4
F0.6907617341947422
sg5
I0
sg6
I0
sg7
I28164
sg8
F0.08802873029714854
sg9
I00
sg10
F0.0
sg11
I0
sg12
S'keith.dodson@enron.com'
p367
sg14
I0
sg15
I0
sg16
F0.21879033946883958
sg17
I114
sg18
I0
sg19
I14
sg20
I774
sg21
F0.0
sg22
I0
sg23
I70000
sg24
I0
sg25
I10
sg26
I0
sg27
F0.0
sg28
I3
sg29
F0.0
sg30
I0
sg31
I221003
sg32
F0.0024191960392697404
sg33
I319941
sg34
I0
sg35
I0
sg36
F0.0
ssS'YEAGER F SCOTT'
p368
(dp369
g3
I0
sg4
F0.4396419650291424
sg5
I0
sg6
F0.30090692633371247
sg7
I53947
sg8
F0.14972800444074383
sg9
I01
sg10
F0.0
sg11
I0
sg12
S'scott.yeager@enron.com'
p370
sg14
I0
sg15
I0
sg16
F0.0
sg17
I0
sg18
I0
sg19
I0
sg20
I147950
sg21
F0.0
sg22
I0
sg23
I0
sg24
I11884758
sg25
I0
sg26
F0.6990930736662875
sg27
F0.0
sg28
I0
sg29
F0.0
sg30
I3576206
sg31
I158403
sg32
F0.4106300305301138
sg33
I360300
sg34
F0.0
sg35
I8308552
sg36
F0.0
ssS'HIRKO JOSEPH'
p371
(dp372
g3
I0
sg4
F0.0
sg5
I10259
sg6
F0.0
sg7
I77978
sg8
F0.8560262588782892
sg9
I01
sg10
F0.0
sg11
I0
sg12
S'joe.hirko@enron.com'
p373
sg14
I0
sg15
I0
sg16
F0.0
sg17
I0
sg18
I0
sg19
I0
sg20
I2856
sg21
F0.0
sg22
I0
sg23
I0
sg24
I30766064
sg25
I0
sg26
F1.0
sg27
F0.0
sg28
I0
sg29
F0.1126211673783935
sg30
I0
sg31
I0
sg32
F0.03135257374331727
sg33
I91093
sg34
F0.0
sg35
I30766064
sg36
F0.0
ssS'DIETRICH JANET R'
p374
(dp375
g3
I2572
sg4
F0.1773175352224516
sg5
I0
sg6
F0.16892938506353858
sg7
I3475
sg8
F0.0024637282482927606
sg9
I00
sg10
F0.3944914581300905
sg11
I0
sg12
S'janet.dietrich@enron.com'
p376
sg14
I556416
sg15
I0
sg16
F0.4253919277627788
sg17
I1902
sg18
I0
sg19
I63
sg20
I473
sg21
F0.0
sg22
I0
sg23
I600000
sg24
I1865087
sg25
I305
sg26
F0.8310706149364614
sg27
F0.0
sg28
I14
sg29
F0.0
sg30
I315068
sg31
I250100
sg32
F0.00033535063638632395
sg33
I1410464
sg34
F0.0
sg35
I1550019
sg36
F0.0
ssS'DERRICK JR. JAMES V'
p377
(dp378
g3
I2181
sg4
F0.8936333557781484
sg5
I0
sg6
F0.20237744642638578
sg7
I51124
sg8
F0.09278722859771935
sg9
I00
sg10
F0.8784331946110664
sg11
I-1284000
sg12
S'james.derrick@enron.com'
p379
sg14
I484000
sg15
I-1787380
sg16
F1.4519556935720106
sg17
I1401
sg18
I0
sg19
I909
sg20
I7482
sg21
F0.0
sg22
I0
sg23
I800000
sg24
I8831913
sg25
I64
sg26
F1.0
sg27
F-2.330388888183077
sg28
I20
sg29
F0.0
sg30
I1787380
sg31
I492375
sg32
F0.01357941562413223
sg33
I550981
sg34
F-0.20237744642638578
sg35
I8831913
sg36
F0.0
ssS'FREVERT MARK A'
p380
(dp381
g3
I3275
sg4
F0.06149428518599881
sg5
I6426990
sg6
F0.28645971857147207
sg7
I86987
sg8
F0.005041985146526336
sg9
I00
sg10
F0.09372602163276922
sg11
I-3367011
sg12
S'mark.frevert@enron.com'
p382
sg14
I1617011
sg15
I0
sg16
F0.1159250266482655
sg17
I2979
sg18
I2000000
sg19
I21
sg20
I7427621
sg21
F0.1159250266482655
sg22
I0
sg23
I2000000
sg24
I14622185
sg25
I242
sg26
F0.713540281428528
sg27
F-0.19516041995000152
sg28
I6
sg29
F0.37252449350906797
sg30
I4188667
sg31
I1060932
sg32
F0.4305235811791082
sg33
I17252530
sg34
F0.0
sg35
I10433518
sg36
F0.0
ssS'PAI LOU L'
p383
(dp384
g3
I0
sg4
F0.08384466458324195
sg5
I0
sg6
F0.35493273344912846
sg7
I32047
sg8
F0.01026034911504609
sg9
I00
sg10
F0.0
sg11
I0
sg12
S'lou.pai@enron.com'
p385
sg14
I0
sg15
I0
sg16
F0.3201656665224854
sg17
I0
sg18
I0
sg19
I0
sg20
I1829457
sg21
F0.0
sg22
I0
sg23
I1000000
sg24
I23817930
sg25
I0
sg26
F0.6450672665508715
sg27
F0.0
sg28
I0
sg29
F0.0
sg30
I8453763
sg31
I261879
sg32
F0.5857293197792266
sg33
I3123383
sg34
F0.0
sg35
I15364167
sg36
F0.0
ssS'BAY FRANKLIN R'
p386
(dp387
g3
I0
sg4
F0.2895640428369836
sg5
I260455
sg6
F2.3137080648744726
sg7
I129142
sg8
F0.15602588389940267
sg9
I00
sg10
F0.0
sg11
I-201641
sg12
S'frank.bay@enron.com'
p388
sg14
I0
sg15
I-82782
sg16
F0.48326921961686414
sg17
I0
sg18
I0
sg19
I0
sg20
I69
sg21
F0.0
sg22
I0
sg23
I400000
sg24
I63014
sg25
I0
sg26
F0.0
sg27
F-0.24361722178191025
sg28
I0
sg29
F0.3146747114882759
sg30
I145796
sg31
I239671
sg32
F8.336394038390907e-05
sg33
I827696
sg34
F-1.3137080648744723
sg35
I0
sg36
F0.0
ssS'HAYSLETT RODERICK J'
p389
(dp390
g3
I2649
sg4
I0
sg5
I0
sg6
F1.0
sg7
I0
sg8
I0
sg9
I00
sg10
I0
sg11
I0
sg12
S'rod.hayslett@enron.com'
p391
sg14
I0
sg15
I0
sg16
I0
sg17
I571
sg18
I0
sg19
I1061
sg20
I0
sg21
I0
sg22
I0
sg23
I0
sg24
I346663
sg25
I35
sg26
F0.0
sg27
I0
sg28
I38
sg29
I0
sg30
I346663
sg31
I0
sg32
I0
sg33
I0
sg34
F0.0
sg35
I0
sg36
I0
ssS'FUGH JOHN L'
p392
(dp393
g3
I0
sg4
F0.0
sg5
I50591
sg6
F0.0
sg7
I0
sg8
F0.0
sg9
I00
sg10
F0.0
sg11
I0
sg12
I0
sg14
I0
sg15
I0
sg16
F0.0
sg17
I0
sg18
I0
sg19
I0
sg20
I0
sg21
F0.0
sg22
I0
sg23
I0
sg24
I176378
sg25
I0
sg26
F1.0
sg27
F0.0
sg28
I0
sg29
F1.0
sg30
I0
sg31
I0
sg32
F0.0
sg33
I50591
sg34
F0.0
sg35
I176378
sg36
F0.0
ssS'FALLON JAMES B'
p394
(dp395
g3
I1755
sg4
F0.08285087886321722
sg5
I0
sg6
F0.5968712900322801
sg7
I95924
sg8
F0.026092254796890386
sg9
I00
sg10
F0.10182600085955053
sg11
I0
sg12
S'jim.fallon@enron.com'
p396
sg14
I374347
sg15
I0
sg16
F0.6800241544579664
sg17
I1604
sg18
I0
sg19
I75
sg20
I401481
sg21
F0.0
sg22
I0
sg23
I2500000
sg24
I2332399
sg25
I42
sg26
F0.40312870996771993
sg27
F0.0
sg28
I37
sg29
F0.0
sg30
I1392142
sg31
I304588
sg32
F0.10920671102237552
sg33
I3676340
sg34
F0.0
sg35
I940257
sg36
F0.0
ssS'KOENIG MARK E'
p397
(dp398
g3
I2374
sg4
F0.19525129124535962
sg5
I0
sg6
F0.6501470009973672
sg7
I127017
sg8
F0.08001469049483408
sg9
I01
sg10
F0.18898578259957505
sg11
I0
sg12
S'mark.koenig@enron.com'
p399
sg14
I300000
sg15
I0
sg16
F0.44096682606567505
sg17
I2271
sg18
I0
sg19
I61
sg20
I150458
sg21
F0.0
sg22
I0
sg23
I700000
sg24
I1920055
sg25
I53
sg26
F0.3498529990026327
sg27
F0.0
sg28
I15
sg29
F0.0
sg30
I1248318
sg31
I309946
sg32
F0.0947814095945562
sg33
I1587421
sg34
F0.0
sg35
I671737
sg36
F0.0
ssS'SAVAGE FRANK'
p400
(dp401
g3
I0
sg4
F0.0
sg5
I0
sg6
I0
sg7
I0
sg8
F0.0
sg9
I00
sg10
F0.0
sg11
I-121284
sg12
I0
sg14
I0
sg15
I0
sg16
F0.0
sg17
I0
sg18
I0
sg19
I0
sg20
I0
sg21
F0.0
sg22
I125034
sg23
I0
sg24
I0
sg25
I0
sg26
I0
sg27
F-32.3424
sg28
I0
sg29
F0.0
sg30
I0
sg31
I0
sg32
F0.0
sg33
I3750
sg34
I0
sg35
I0
sg36
F33.3424
ssS'IZZO LAWRENCE L'
p402
(dp403
g3
I496
sg4
F0.043076466107225916
sg5
I0
sg6
F0.6279760411547806
sg7
I28093
sg8
F0.014191279432773152
sg9
I00
sg10
F0.15786049274700495
sg11
I0
sg12
S'larry.izzo@enron.com'
p404
sg14
I312500
sg15
I0
sg16
F0.0
sg17
I437
sg18
I0
sg19
I19
sg20
I1553729
sg21
F0.0
sg22
I0
sg23
I0
sg24
I5819980
sg25
I28
sg26
F0.3720239588452194
sg27
F0.0
sg28
I5
sg29
F0.0
sg30
I3654808
sg31
I85274
sg32
F0.784871761712996
sg33
I1979596
sg34
F0.0
sg35
I2165172
sg36
F0.0
ssS'TILNEY ELIZABETH A'
p405
(dp406
g3
I460
sg4
F0.6192847646303266
sg5
I0
sg6
F0.4938110102205229
sg7
I0
sg8
F0.0
sg9
I00
sg10
F0.6885448668354227
sg11
I-575000
sg12
S'elizabeth.tilney@enron.com'
p407
sg14
I275000
sg15
I0
sg16
F0.7511398547295521
sg17
I379
sg18
I0
sg19
I19
sg20
I152055
sg21
F0.0
sg22
I0
sg23
I300000
sg24
I1168042
sg25
I10
sg26
F0.5061889897794771
sg27
F-1.4396847215649748
sg28
I11
sg29
F0.0
sg30
I576792
sg31
I247338
sg32
F0.3807152353696735
sg33
I399393
sg34
F0.0
sg35
I591250
sg36
F0.0
ssS'MARTIN AMANDA K'
p408
(dp409
g3
I1522
sg4
F0.04157087366076144
sg5
I85430
sg6
F0.0
sg7
I8211
sg8
F0.0009766842361189749
sg9
I00
sg10
F0.6120404671526735
sg11
I0
sg12
S'a..martin@enron.com'
p410
sg14
I5145434
sg15
I0
sg16
F0.0
sg17
I477
sg18
I0
sg19
I230
sg20
I2818454
sg21
F0.0
sg22
I0
sg23
I0
sg24
I2070306
sg25
I8
sg26
F1.0
sg27
F0.0
sg28
I0
sg29
F0.010161750614010964
sg30
I0
sg31
I349487
sg32
F0.3352502243364352
sg33
I8407016
sg34
F0.0
sg35
I2070306
sg36
F0.0
ssS'BUY RICHARD B'
p411
(dp412
g3
I3523
sg4
F0.14031740856865596
sg5
I649584
sg6
F0.26176944493637627
sg7
I0
sg8
F0.0
sg9
I00
sg10
F0.32680788996231275
sg11
I-694862
sg12
S'rick.buy@enron.com'
p413
sg14
I769862
sg15
I0
sg16
F0.38205171961479
sg17
I2333
sg18
I0
sg19
I1053
sg20
I400572
sg21
F0.0
sg22
I0
sg23
I900000
sg24
I3444470
sg25
I156
sg26
F0.7382305550636237
sg27
F-0.29497024666108024
sg28
I71
sg29
F0.27574964914917083
sg30
I901657
sg31
I330546
sg32
F0.17004357936615072
sg33
I2355702
sg34
F0.0
sg35
I2542813
sg36
F0.0
ssS'GRAMM WENDY L'
p414
(dp415
g3
I0
sg4
F0.0
sg5
I0
sg6
I0
sg7
I0
sg8
F0.0
sg9
I00
sg10
F0.0
sg11
I0
sg12
I0
sg14
I0
sg15
I0
sg16
F0.0
sg17
I0
sg18
I0
sg19
I0
sg20
I0
sg21
F0.0
sg22
I119292
sg23
I0
sg24
I0
sg25
I0
sg26
I0
sg27
F0.0
sg28
I0
sg29
F0.0
sg30
I0
sg31
I0
sg32
F0.0
sg33
I119292
sg34
I0
sg35
I0
sg36
F1.0
ssS'CAUSEY RICHARD A'
p416
(dp417
g3
I1892
sg4
F0.22217376460729532
sg5
I0
sg6
F1.0
sg7
I30674
sg8
F0.016414110334243386
sg9
I01
sg10
F0.18729016812235721
sg11
I-235000
sg12
S'richard.causey@enron.com'
p418
sg14
I350000
sg15
I0
sg16
F0.5351147660638778
sg17
I1585
sg18
I0
sg19
I49
sg20
I307895
sg21
F0.0
sg22
I0
sg23
I1000000
sg24
I2502063
sg25
I58
sg26
F0.0
sg27
F-0.12575197002501126
sg28
I12
sg29
F0.0
sg30
I2502063
sg31
I415189
sg32
F0.16475916089723763
sg33
I1868758
sg34
F0.0
sg35
I0
sg36
F0.0
ssS'TAYLOR MITCHELL S'
p419
(dp420
g3
I533
sg4
F0.24272259607948654
sg5
I227449
sg6
F0.15054493293543902
sg7
I0
sg8
F0.0
sg9
I00
sg10
F0.0
sg11
I0
sg12
S'mitchell.taylor@enron.com'
p421
sg14
I0
sg15
I0
sg16
F0.5491171568910085
sg17
I300
sg18
I0
sg19
I29
sg20
I0
sg21
F0.0
sg22
I0
sg23
I600000
sg24
I3745048
sg25
I0
sg26
F0.849455067064561
sg27
F0.0
sg28
I0
sg29
F0.20816024702950497
sg30
I563798
sg31
I265214
sg32
F0.0
sg33
I1092663
sg34
F0.0
sg35
I3181250
sg36
F0.0
ssS'DONAHUE JR JEFFREY M'
p422
(dp423
g3
I865
sg4
F0.3181248287201973
sg5
I0
sg6
F0.2914629949638664
sg7
I96268
sg8
F0.1099250936329588
sg9
I00
sg10
F0.0
sg11
I-300000
sg12
S'jeff.donahue@enron.com'
p424
sg14
I0
sg15
I0
sg16
F0.9134922809902256
sg17
I772
sg18
I0
sg19
I22
sg20
I891
sg21
F0.0
sg22
I0
sg23
I800000
sg24
I1080988
sg25
I188
sg26
F0.7085370050361336
sg27
F-0.3425596053713346
sg28
I11
sg29
F0.0
sg30
I315068
sg31
I278601
sg32
F0.0010174020279528637
sg33
I875760
sg34
F0.0
sg35
I765920
sg36
F0.0
ssS'GLISAN JR BEN F'
p425
(dp426
g3
I873
sg4
F0.21612705968164342
sg5
I0
sg6
F0.5058378053448351
sg7
I125978
sg8
F0.09901720056213864
sg9
I01
sg10
F0.055823228147174685
sg11
I0
sg12
S'ben.glisan@enron.com'
p427
sg14
I71023
sg15
I0
sg16
F0.4715928204709012
sg17
I874
sg18
I0
sg19
I16
sg20
I200308
sg21
F0.0
sg22
I0
sg23
I600000
sg24
I778546
sg25
I52
sg26
F0.49416219465516487
sg27
F0.0
sg28
I6
sg29
F0.0
sg30
I393818
sg31
I274975
sg32
F0.1574396911381421
sg33
I1272284
sg34
F0.0
sg35
I384728
sg36
F0.0
ss.