(lp0
S'poi'
p1
aS'salary'
p2
aS'to_messages'
p3
aS'deferral_payments'
p4
aS'total_payments'
p5
aS'exercised_stock_options'
p6
aS'bonus'
p7
aS'restricted_stock'
p8
aS'shared_receipt_with_poi'
p9
aS'restricted_stock_deferred'
p10
aS'total_stock_value'
p11
aS'expenses'
p12
aS'loan_advances'
p13
aS'from_messages'
p14
aS'other'
p15
aS'from_this_person_to_poi'
p16
aS'director_fees'
p17
aS'deferred_income'
p18
aS'long_term_incentive'
p19
aS'from_poi_to_this_person'
p20
aS'percent_salary'
p21
aS'percent_restricted_stock'
p22
aS'percent_expenses'
p23
aS'percent_long_term_incentive'
p24
aS'percent_bonus'
p25
aS'percent_loan_advances'
p26
aS'percent_exercised_stock_options'
p27
aS'percent_deferred_income'
p28
aS'percent_deferral_payments'
p29
aS'percent_other'
p30
aS'percent_restricted_stock_deferred'
p31
aS'percent_director_fees'
p32
a.